; generated by Component: ARM Compiler 5.05 update 1 (build 106) Tool: ArmCC [4d0efa]
; commandline ArmCC [--c99 --list --split_sections --debug -c --asm --interleave -o.\flash\obj\ano_dt.o --asm_dir=.\Flash\List\ --list_dir=.\Flash\List\ --depend=.\flash\obj\ano_dt.d --cpu=Cortex-M3 --apcs=interwork -O0 --diag_suppress=9931 -I..\..\Libraries\CMSIS\CM3\CoreSupport -I..\..\Libraries\CMSIS\CM3\DeviceSupport\ST\STM32F10x -I..\..\Libraries\STM32F10x_StdPeriph_Driver\inc -I..\..\Libraries\STM32_USB-FS-Device_Driver\inc -I..\..\User\usb_virture_com -I..\..\User -I..\..\User\bsp -I..\..\User\Driver\IIC -I..\..\User\Driver\LED -I..\..\User\Driver\TIM -I..\..\User\Driver\Delay -I..\..\User\Driver\UART -I..\..\User\Driver\MOTOR -I..\..\User\Driver\PWM_IN -I..\..\User\Driver\EEPROM -I..\..\User\Algorithm\Algorithm_filter -I..\..\User\Algorithm\Algorithm_math -I..\..\User\Algorithm\Algorithm_sqLite -I..\..\User\Algorithm\Algorithm_quaternion -I..\..\User\Function\MultiRotor_rc -I..\..\User\Function\MultiRotor_app -I..\..\User\Function\MultiRotor_ahrs -I..\..\User\Function\MultiRotor_radio -I..\..\User\Function\MultiRotor_control -I..\..\User\Driver\STMFLASH -I..\..\User\Function\MultiRotor_altitute -I..\..\User\Modules\Modules_ultrasonic -I..\..\User\ANO_DT -I..\..\User\Driver\Modules_hmc5883 -I..\..\User\Driver\Modules_mpu6050 -I..\..\User\Driver\Modules_ms5611 -I..\..\User\Driver\Modules_oled -I..\..\User\Driver\Modules_ultrasonic -I..\..\User\Function\Heigh -I"C:\Users\Administrator\Desktop\机器人课飞控\机器人课无人机原始程序 - 副本\Project\MDK-ARM(uV5)\RTE" -IC:\Keil_v5\ARM\PACK\Keil\STM32F1xx_DFP\1.0.5\Device\Include -IC:\Keil_v5\ARM\CMSIS\Include -D__MICROLIB -D__UVISION_VERSION=514 -DSTM32F10X_HD -DSTM32F10X_HD -DUSE_STDPERIPH_DRIVER --omf_browse=.\flash\obj\ano_dt.crf ..\..\User\ANO_DT\ANO_DT.c]
                          THUMB

                          AREA ||i.ANO_DT_Data_Exchange||, CODE, READONLY, ALIGN=2

                  ANO_DT_Data_Exchange PROC
;;;18     //此函数应由用户每10ms调用一次
;;;19     void ANO_DT_Data_Exchange(void)
000000  b500              PUSH     {lr}
;;;20     {
000002  b08f              SUB      sp,sp,#0x3c
;;;21     	static u8 cnt = 0;
;;;22     	static u8 userdata_cnt 	= 2;
;;;23     	static u8 senser_cnt1 	= 13;
;;;24     	static u8 senser_cnt2 	= 15;
;;;25     	static u8 status_cnt 	= 9;
;;;26     	static u8 rcdata_cnt 	= 23;
;;;27     	static u8 motopwm_cnt	= 27;
;;;28     	static u8 power_cnt		=	199;
;;;29     
;;;30     	if((cnt % userdata_cnt) == (userdata_cnt-1))//还有个userdata2根据需要可以设置
000004  48fd              LDR      r0,|L1.1020|
000006  7800              LDRB     r0,[r0,#0]  ; cnt
000008  49fd              LDR      r1,|L1.1024|
00000a  7809              LDRB     r1,[r1,#0]  ; userdata_cnt
00000c  fb90f2f1          SDIV     r2,r0,r1
000010  fb010112          MLS      r1,r1,r2,r0
000014  48fa              LDR      r0,|L1.1024|
000016  7800              LDRB     r0,[r0,#0]  ; userdata_cnt
000018  1e40              SUBS     r0,r0,#1
00001a  4281              CMP      r1,r0
00001c  d103              BNE      |L1.38|
;;;31     	{
;;;32     		f.send_userdata1=1;
00001e  2001              MOVS     r0,#1
000020  49f8              LDR      r1,|L1.1028|
000022  7388              STRB     r0,[r1,#0xe]
;;;33     	  f.send_userdata2=1;
000024  73c8              STRB     r0,[r1,#0xf]
                  |L1.38|
;;;34     	}
;;;35     	if((cnt % senser_cnt1) == (senser_cnt1-1))//
000026  48f5              LDR      r0,|L1.1020|
000028  7800              LDRB     r0,[r0,#0]  ; cnt
00002a  49f7              LDR      r1,|L1.1032|
00002c  7809              LDRB     r1,[r1,#0]  ; senser_cnt1
00002e  fb90f2f1          SDIV     r2,r0,r1
000032  fb010112          MLS      r1,r1,r2,r0
000036  48f4              LDR      r0,|L1.1032|
000038  7800              LDRB     r0,[r0,#0]  ; senser_cnt1
00003a  1e40              SUBS     r0,r0,#1
00003c  4281              CMP      r1,r0
00003e  d102              BNE      |L1.70|
;;;36     		f.send_senser1=1;
000040  2001              MOVS     r0,#1
000042  49f0              LDR      r1,|L1.1028|
000044  7088              STRB     r0,[r1,#2]
                  |L1.70|
;;;37     		
;;;38     	if((cnt % senser_cnt2) == (senser_cnt2-1))//
000046  48ed              LDR      r0,|L1.1020|
000048  7800              LDRB     r0,[r0,#0]  ; cnt
00004a  49f0              LDR      r1,|L1.1036|
00004c  7809              LDRB     r1,[r1,#0]  ; senser_cnt2
00004e  fb90f2f1          SDIV     r2,r0,r1
000052  fb010112          MLS      r1,r1,r2,r0
000056  48ed              LDR      r0,|L1.1036|
000058  7800              LDRB     r0,[r0,#0]  ; senser_cnt2
00005a  1e40              SUBS     r0,r0,#1
00005c  4281              CMP      r1,r0
00005e  d102              BNE      |L1.102|
;;;39     		f.send_senser2=1;	
000060  2001              MOVS     r0,#1
000062  49e8              LDR      r1,|L1.1028|
000064  70c8              STRB     r0,[r1,#3]
                  |L1.102|
;;;40     	
;;;41     	if((cnt % status_cnt) == (status_cnt-1))
000066  48e5              LDR      r0,|L1.1020|
000068  7800              LDRB     r0,[r0,#0]  ; cnt
00006a  49e9              LDR      r1,|L1.1040|
00006c  7809              LDRB     r1,[r1,#0]  ; status_cnt
00006e  fb90f2f1          SDIV     r2,r0,r1
000072  fb010112          MLS      r1,r1,r2,r0
000076  48e6              LDR      r0,|L1.1040|
000078  7800              LDRB     r0,[r0,#0]  ; status_cnt
00007a  1e40              SUBS     r0,r0,#1
00007c  4281              CMP      r1,r0
00007e  d102              BNE      |L1.134|
;;;42     		f.send_status = 1;	
000080  2001              MOVS     r0,#1
000082  49e0              LDR      r1,|L1.1028|
000084  7048              STRB     r0,[r1,#1]
                  |L1.134|
;;;43     	
;;;44     	if((cnt % rcdata_cnt) == (rcdata_cnt-1))
000086  48dd              LDR      r0,|L1.1020|
000088  7800              LDRB     r0,[r0,#0]  ; cnt
00008a  49e2              LDR      r1,|L1.1044|
00008c  7809              LDRB     r1,[r1,#0]  ; rcdata_cnt
00008e  fb90f2f1          SDIV     r2,r0,r1
000092  fb010112          MLS      r1,r1,r2,r0
000096  48df              LDR      r0,|L1.1044|
000098  7800              LDRB     r0,[r0,#0]  ; rcdata_cnt
00009a  1e40              SUBS     r0,r0,#1
00009c  4281              CMP      r1,r0
00009e  d102              BNE      |L1.166|
;;;45     		f.send_rcdata = 1;	
0000a0  2001              MOVS     r0,#1
0000a2  49d8              LDR      r1,|L1.1028|
0000a4  7288              STRB     r0,[r1,#0xa]
                  |L1.166|
;;;46     	
;;;47     	if((cnt % motopwm_cnt) == (motopwm_cnt-1))
0000a6  48d5              LDR      r0,|L1.1020|
0000a8  7800              LDRB     r0,[r0,#0]  ; cnt
0000aa  49db              LDR      r1,|L1.1048|
0000ac  7809              LDRB     r1,[r1,#0]  ; motopwm_cnt
0000ae  fb90f2f1          SDIV     r2,r0,r1
0000b2  fb010112          MLS      r1,r1,r2,r0
0000b6  48d8              LDR      r0,|L1.1048|
0000b8  7800              LDRB     r0,[r0,#0]  ; motopwm_cnt
0000ba  1e40              SUBS     r0,r0,#1
0000bc  4281              CMP      r1,r0
0000be  d102              BNE      |L1.198|
;;;48     		f.send_motopwm = 1;	
0000c0  2001              MOVS     r0,#1
0000c2  49d0              LDR      r1,|L1.1028|
0000c4  7308              STRB     r0,[r1,#0xc]
                  |L1.198|
;;;49     	
;;;50     	if((cnt % power_cnt) == (power_cnt-1))
0000c6  48cd              LDR      r0,|L1.1020|
0000c8  7800              LDRB     r0,[r0,#0]  ; cnt
0000ca  49d4              LDR      r1,|L1.1052|
0000cc  7809              LDRB     r1,[r1,#0]  ; power_cnt
0000ce  fb90f2f1          SDIV     r2,r0,r1
0000d2  fb010112          MLS      r1,r1,r2,r0
0000d6  48d1              LDR      r0,|L1.1052|
0000d8  7800              LDRB     r0,[r0,#0]  ; power_cnt
0000da  1e40              SUBS     r0,r0,#1
0000dc  4281              CMP      r1,r0
0000de  d102              BNE      |L1.230|
;;;51     		f.send_power = 1;		
0000e0  2001              MOVS     r0,#1
0000e2  49c8              LDR      r1,|L1.1028|
0000e4  7348              STRB     r0,[r1,#0xd]
                  |L1.230|
;;;52     	cnt++;
0000e6  48c5              LDR      r0,|L1.1020|
0000e8  7800              LDRB     r0,[r0,#0]  ; cnt
0000ea  1c40              ADDS     r0,r0,#1
0000ec  49c3              LDR      r1,|L1.1020|
0000ee  7008              STRB     r0,[r1,#0]
;;;53     	////////////////////////////////////////////////////////////////////////////////
;;;54     /////////////////////////////////////////////////////////////////////////////////////
;;;55     	if(f.send_pid1)
0000f0  48c4              LDR      r0,|L1.1028|
0000f2  7900              LDRB     r0,[r0,#4]  ; f
0000f4  2800              CMP      r0,#0
0000f6  d056              BEQ      |L1.422|
;;;56     	{
;;;57     		f.send_pid1 = 0;
0000f8  2000              MOVS     r0,#0
0000fa  49c2              LDR      r1,|L1.1028|
0000fc  7108              STRB     r0,[r1,#4]
;;;58     		ANO_DT_Send_PID(1,ctrl.pitch.core.kp * 100,ctrl.pitch.core.ki * 1000,ctrl.pitch.core.kd * 100,
0000fe  48c8              LDR      r0,|L1.1056|
000100  f8d000c0          LDR      r0,[r0,#0xc0]
000104  49c7              LDR      r1,|L1.1060|
000106  9005              STR      r0,[sp,#0x14]
000108  f7fffffe          BL       __aeabi_fmul
00010c  900e              STR      r0,[sp,#0x38]
00010e  48c4              LDR      r0,|L1.1056|
000110  f8d000bc          LDR      r0,[r0,#0xbc]
000114  49c4              LDR      r1,|L1.1064|
000116  9005              STR      r0,[sp,#0x14]
000118  f7fffffe          BL       __aeabi_fmul
00011c  900d              STR      r0,[sp,#0x34]
00011e  48c0              LDR      r0,|L1.1056|
000120  f8d000b8          LDR      r0,[r0,#0xb8]
000124  49bf              LDR      r1,|L1.1060|
000126  9005              STR      r0,[sp,#0x14]
000128  f7fffffe          BL       __aeabi_fmul
00012c  900c              STR      r0,[sp,#0x30]
00012e  48bc              LDR      r0,|L1.1056|
000130  6f80              LDR      r0,[r0,#0x78]
000132  49bc              LDR      r1,|L1.1060|
000134  9005              STR      r0,[sp,#0x14]
000136  f7fffffe          BL       __aeabi_fmul
00013a  900b              STR      r0,[sp,#0x2c]
00013c  48b8              LDR      r0,|L1.1056|
00013e  6f40              LDR      r0,[r0,#0x74]
000140  49b9              LDR      r1,|L1.1064|
000142  9005              STR      r0,[sp,#0x14]
000144  f7fffffe          BL       __aeabi_fmul
000148  900a              STR      r0,[sp,#0x28]
00014a  48b5              LDR      r0,|L1.1056|
00014c  6f00              LDR      r0,[r0,#0x70]
00014e  49b5              LDR      r1,|L1.1060|
000150  9005              STR      r0,[sp,#0x14]
000152  f7fffffe          BL       __aeabi_fmul
000156  9009              STR      r0,[sp,#0x24]
000158  48b1              LDR      r0,|L1.1056|
00015a  6b00              LDR      r0,[r0,#0x30]
00015c  49b1              LDR      r1,|L1.1060|
00015e  9005              STR      r0,[sp,#0x14]
000160  f7fffffe          BL       __aeabi_fmul
000164  9008              STR      r0,[sp,#0x20]
000166  48ae              LDR      r0,|L1.1056|
000168  6ac0              LDR      r0,[r0,#0x2c]
00016a  49af              LDR      r1,|L1.1064|
00016c  9005              STR      r0,[sp,#0x14]
00016e  f7fffffe          BL       __aeabi_fmul
000172  9007              STR      r0,[sp,#0x1c]
000174  48aa              LDR      r0,|L1.1056|
000176  6a80              LDR      r0,[r0,#0x28]
000178  49aa              LDR      r1,|L1.1060|
00017a  9005              STR      r0,[sp,#0x14]
00017c  f7fffffe          BL       __aeabi_fmul
000180  9006              STR      r0,[sp,#0x18]
000182  e9dd230b          LDRD     r2,r3,[sp,#0x2c]
000186  e9dd010d          LDRD     r0,r1,[sp,#0x34]
00018a  e9cd2302          STRD     r2,r3,[sp,#8]
00018e  e9cd0104          STRD     r0,r1,[sp,#0x10]
000192  e9dd0109          LDRD     r0,r1,[sp,#0x24]
000196  e9cd0100          STRD     r0,r1,[sp,#0]
00019a  2001              MOVS     r0,#1
00019c  a906              ADD      r1,sp,#0x18
00019e  c90e              LDM      r1,{r1-r3}
0001a0  f7fffffe          BL       ANO_DT_Send_PID
0001a4  e219              B        |L1.1498|
                  |L1.422|
;;;59     											ctrl.roll.core.kp * 100,ctrl.roll.core.ki * 1000,ctrl.roll.core.kd * 100,
;;;60     											ctrl.yaw.core.kp * 100,ctrl.yaw.core.ki * 1000,ctrl.yaw.core.kd * 100);
;;;61     	}	
;;;62     ///////////////////////////////////////////////////////////////////////////////////////
;;;63       else if(f.send_pid2)
0001a6  4897              LDR      r0,|L1.1028|
0001a8  7940              LDRB     r0,[r0,#5]  ; f
0001aa  2800              CMP      r0,#0
0001ac  d056              BEQ      |L1.604|
;;;64     	{
;;;65     		f.send_pid2 = 0;
0001ae  2000              MOVS     r0,#0
0001b0  4994              LDR      r1,|L1.1028|
0001b2  7148              STRB     r0,[r1,#5]
;;;66     		ANO_DT_Send_PID(2,ctrl.pitch.shell.kp * 100,ctrl.pitch.shell.ki * 1000,ctrl.pitch.shell.kd * 100,
0001b4  489a              LDR      r0,|L1.1056|
0001b6  f8d0009c          LDR      r0,[r0,#0x9c]
0001ba  499a              LDR      r1,|L1.1060|
0001bc  9005              STR      r0,[sp,#0x14]
0001be  f7fffffe          BL       __aeabi_fmul
0001c2  900e              STR      r0,[sp,#0x38]
0001c4  4896              LDR      r0,|L1.1056|
0001c6  f8d00098          LDR      r0,[r0,#0x98]
0001ca  4997              LDR      r1,|L1.1064|
0001cc  9005              STR      r0,[sp,#0x14]
0001ce  f7fffffe          BL       __aeabi_fmul
0001d2  900d              STR      r0,[sp,#0x34]
0001d4  4892              LDR      r0,|L1.1056|
0001d6  f8d00094          LDR      r0,[r0,#0x94]  ; ctrl
0001da  4992              LDR      r1,|L1.1060|
0001dc  9005              STR      r0,[sp,#0x14]
0001de  f7fffffe          BL       __aeabi_fmul
0001e2  900c              STR      r0,[sp,#0x30]
0001e4  488e              LDR      r0,|L1.1056|
0001e6  6d40              LDR      r0,[r0,#0x54]
0001e8  498e              LDR      r1,|L1.1060|
0001ea  9005              STR      r0,[sp,#0x14]
0001ec  f7fffffe          BL       __aeabi_fmul
0001f0  900b              STR      r0,[sp,#0x2c]
0001f2  488b              LDR      r0,|L1.1056|
0001f4  6d00              LDR      r0,[r0,#0x50]
0001f6  498c              LDR      r1,|L1.1064|
0001f8  9005              STR      r0,[sp,#0x14]
0001fa  f7fffffe          BL       __aeabi_fmul
0001fe  900a              STR      r0,[sp,#0x28]
000200  4887              LDR      r0,|L1.1056|
000202  6cc0              LDR      r0,[r0,#0x4c]  ; ctrl
000204  4987              LDR      r1,|L1.1060|
000206  9005              STR      r0,[sp,#0x14]
000208  f7fffffe          BL       __aeabi_fmul
00020c  9009              STR      r0,[sp,#0x24]
00020e  4884              LDR      r0,|L1.1056|
000210  68c0              LDR      r0,[r0,#0xc]
000212  4984              LDR      r1,|L1.1060|
000214  9005              STR      r0,[sp,#0x14]
000216  f7fffffe          BL       __aeabi_fmul
00021a  9008              STR      r0,[sp,#0x20]
00021c  4880              LDR      r0,|L1.1056|
00021e  6880              LDR      r0,[r0,#8]
000220  4981              LDR      r1,|L1.1064|
000222  9005              STR      r0,[sp,#0x14]
000224  f7fffffe          BL       __aeabi_fmul
000228  9007              STR      r0,[sp,#0x1c]
00022a  487d              LDR      r0,|L1.1056|
00022c  6840              LDR      r0,[r0,#4]  ; ctrl
00022e  497d              LDR      r1,|L1.1060|
000230  9005              STR      r0,[sp,#0x14]
000232  f7fffffe          BL       __aeabi_fmul
000236  9006              STR      r0,[sp,#0x18]
000238  e9dd230b          LDRD     r2,r3,[sp,#0x2c]
00023c  e9dd100d          LDRD     r1,r0,[sp,#0x34]
000240  e9cd2302          STRD     r2,r3,[sp,#8]
000244  e9cd1004          STRD     r1,r0,[sp,#0x10]
000248  e9dd0109          LDRD     r0,r1,[sp,#0x24]
00024c  e9cd0100          STRD     r0,r1,[sp,#0]
000250  2002              MOVS     r0,#2
000252  a906              ADD      r1,sp,#0x18
000254  c90e              LDM      r1,{r1-r3}
000256  f7fffffe          BL       ANO_DT_Send_PID
00025a  e1be              B        |L1.1498|
                  |L1.604|
;;;67     											ctrl.roll.shell.kp * 100,ctrl.roll.shell.ki * 1000,ctrl.roll.shell.kd * 100,
;;;68     											ctrl.yaw.shell.kp * 100,ctrl.yaw.shell.ki * 1000,ctrl.yaw.shell.kd * 100);
;;;69     	}
;;;70     ///////////////////////////////////////////////////////////////////////////////////////
;;;71       else	if(f.send_pid3)
00025c  4869              LDR      r0,|L1.1028|
00025e  7980              LDRB     r0,[r0,#6]  ; f
000260  2800              CMP      r0,#0
000262  d053              BEQ      |L1.780|
;;;72     	{
;;;73     		f.send_pid3 = 0;
000264  2000              MOVS     r0,#0
000266  4967              LDR      r1,|L1.1028|
000268  7188              STRB     r0,[r1,#6]
;;;74     		ANO_DT_Send_PID(3,ultra_wz_speed_pid.kp * 100,ultra_wz_speed_pid.ki * 1000,ultra_wz_speed_pid.kd * 100,
00026a  4870              LDR      r0,|L1.1068|
00026c  6840              LDR      r0,[r0,#4]  ; baro_pid
00026e  496d              LDR      r1,|L1.1060|
000270  9005              STR      r0,[sp,#0x14]
000272  f7fffffe          BL       __aeabi_fmul
000276  900e              STR      r0,[sp,#0x38]
000278  486c              LDR      r0,|L1.1068|
00027a  6880              LDR      r0,[r0,#8]  ; baro_pid
00027c  496a              LDR      r1,|L1.1064|
00027e  9005              STR      r0,[sp,#0x14]
000280  f7fffffe          BL       __aeabi_fmul
000284  900d              STR      r0,[sp,#0x34]
000286  4869              LDR      r0,|L1.1068|
000288  6800              LDR      r0,[r0,#0]  ; baro_pid
00028a  4966              LDR      r1,|L1.1060|
00028c  9005              STR      r0,[sp,#0x14]
00028e  f7fffffe          BL       __aeabi_fmul
000292  900c              STR      r0,[sp,#0x30]
000294  4866              LDR      r0,|L1.1072|
000296  6840              LDR      r0,[r0,#4]  ; ultra_pid
000298  4962              LDR      r1,|L1.1060|
00029a  9005              STR      r0,[sp,#0x14]
00029c  f7fffffe          BL       __aeabi_fmul
0002a0  900b              STR      r0,[sp,#0x2c]
0002a2  4863              LDR      r0,|L1.1072|
0002a4  6880              LDR      r0,[r0,#8]  ; ultra_pid
0002a6  4960              LDR      r1,|L1.1064|
0002a8  9005              STR      r0,[sp,#0x14]
0002aa  f7fffffe          BL       __aeabi_fmul
0002ae  900a              STR      r0,[sp,#0x28]
0002b0  485f              LDR      r0,|L1.1072|
0002b2  6800              LDR      r0,[r0,#0]  ; ultra_pid
0002b4  495b              LDR      r1,|L1.1060|
0002b6  9005              STR      r0,[sp,#0x14]
0002b8  f7fffffe          BL       __aeabi_fmul
0002bc  9009              STR      r0,[sp,#0x24]
0002be  485d              LDR      r0,|L1.1076|
0002c0  6840              LDR      r0,[r0,#4]  ; ultra_wz_speed_pid
0002c2  4958              LDR      r1,|L1.1060|
0002c4  9005              STR      r0,[sp,#0x14]
0002c6  f7fffffe          BL       __aeabi_fmul
0002ca  9008              STR      r0,[sp,#0x20]
0002cc  4859              LDR      r0,|L1.1076|
0002ce  6880              LDR      r0,[r0,#8]  ; ultra_wz_speed_pid
0002d0  4955              LDR      r1,|L1.1064|
0002d2  9005              STR      r0,[sp,#0x14]
0002d4  f7fffffe          BL       __aeabi_fmul
0002d8  9007              STR      r0,[sp,#0x1c]
0002da  4856              LDR      r0,|L1.1076|
0002dc  6800              LDR      r0,[r0,#0]  ; ultra_wz_speed_pid
0002de  4951              LDR      r1,|L1.1060|
0002e0  9005              STR      r0,[sp,#0x14]
0002e2  f7fffffe          BL       __aeabi_fmul
0002e6  9006              STR      r0,[sp,#0x18]
0002e8  e9dd230b          LDRD     r2,r3,[sp,#0x2c]
0002ec  e9dd100d          LDRD     r1,r0,[sp,#0x34]
0002f0  e9cd2302          STRD     r2,r3,[sp,#8]
0002f4  e9cd1004          STRD     r1,r0,[sp,#0x10]
0002f8  e9dd0109          LDRD     r0,r1,[sp,#0x24]
0002fc  e9cd0100          STRD     r0,r1,[sp,#0]
000300  2003              MOVS     r0,#3
000302  a906              ADD      r1,sp,#0x18
000304  c90e              LDM      r1,{r1-r3}
000306  f7fffffe          BL       ANO_DT_Send_PID
00030a  e166              B        |L1.1498|
                  |L1.780|
;;;75     											ultra_pid.kp * 100,ultra_pid.ki * 1000,ultra_pid.kd * 100,
;;;76     											baro_pid.kp * 100,baro_pid.ki * 1000,baro_pid.kd * 100);
;;;77     	}
;;;78     ///////////////////////////////////////////////////////////////////////////////////////
;;;79       else 	if(f.send_pid4)
00030c  483d              LDR      r0,|L1.1028|
00030e  79c0              LDRB     r0,[r0,#7]  ; f
000310  b320              CBZ      r0,|L1.860|
;;;80     	{
;;;81     		f.send_pid4 = 0;
000312  2000              MOVS     r0,#0
000314  493b              LDR      r1,|L1.1028|
000316  71c8              STRB     r0,[r1,#7]
;;;82     		ANO_DT_Send_PID(4,baro_wz_speed_pid.kp * 100,baro_wz_speed_pid.ki * 1000,baro_wz_speed_pid.kd * 100,0,0,0,0,0,0);
000318  4847              LDR      r0,|L1.1080|
00031a  6840              LDR      r0,[r0,#4]  ; baro_wz_speed_pid
00031c  4941              LDR      r1,|L1.1060|
00031e  900b              STR      r0,[sp,#0x2c]
000320  f7fffffe          BL       __aeabi_fmul
000324  900e              STR      r0,[sp,#0x38]
000326  4844              LDR      r0,|L1.1080|
000328  6880              LDR      r0,[r0,#8]  ; baro_wz_speed_pid
00032a  493f              LDR      r1,|L1.1064|
00032c  900b              STR      r0,[sp,#0x2c]
00032e  f7fffffe          BL       __aeabi_fmul
000332  900d              STR      r0,[sp,#0x34]
000334  4840              LDR      r0,|L1.1080|
000336  6800              LDR      r0,[r0,#0]  ; baro_wz_speed_pid
000338  493a              LDR      r1,|L1.1060|
00033a  900b              STR      r0,[sp,#0x2c]
00033c  f7fffffe          BL       __aeabi_fmul
000340  900c              STR      r0,[sp,#0x30]
000342  2000              MOVS     r0,#0
000344  9002              STR      r0,[sp,#8]
000346  9003              STR      r0,[sp,#0xc]
000348  9004              STR      r0,[sp,#0x10]
00034a  9005              STR      r0,[sp,#0x14]
00034c  9000              STR      r0,[sp,#0]
00034e  9001              STR      r0,[sp,#4]
000350  2004              MOVS     r0,#4
000352  a90c              ADD      r1,sp,#0x30
000354  c90e              LDM      r1,{r1-r3}
000356  f7fffffe          BL       ANO_DT_Send_PID
00035a  e13e              B        |L1.1498|
                  |L1.860|
;;;83     	}	
;;;84     /////////////////////////////////////////////////////////////////////////////////////
;;;85     
;;;86     /////////////////////////////////////////////////////////////////////////////////////
;;;87       else 	if(f.send_version)
00035c  4829              LDR      r0,|L1.1028|
00035e  7800              LDRB     r0,[r0,#0]  ; f
000360  b160              CBZ      r0,|L1.892|
;;;88     	{
;;;89     		f.send_version = 0;
000362  2000              MOVS     r0,#0
000364  4927              LDR      r1,|L1.1028|
000366  7008              STRB     r0,[r1,#0]
;;;90     		ANO_DT_Send_Version(4,300,100,400,0);
000368  f44f73c8          MOV      r3,#0x190
00036c  2264              MOVS     r2,#0x64
00036e  f44f7196          MOV      r1,#0x12c
000372  9000              STR      r0,[sp,#0]
000374  2004              MOVS     r0,#4
000376  f7fffffe          BL       ANO_DT_Send_Version
00037a  e12e              B        |L1.1498|
                  |L1.892|
;;;91     	}
;;;92     
;;;93     /////////////////////////////////////////////////////////////////////////////////////
;;;94       else 	if(f.send_power)
00037c  4821              LDR      r0,|L1.1028|
00037e  7b40              LDRB     r0,[r0,#0xd]  ; f
000380  b118              CBZ      r0,|L1.906|
;;;95     	{
;;;96     		f.send_power = 0;
000382  2000              MOVS     r0,#0
000384  491f              LDR      r1,|L1.1028|
000386  7348              STRB     r0,[r1,#0xd]
000388  e127              B        |L1.1498|
                  |L1.906|
;;;97     	}
;;;98     /////////////////////////////////////////////////////////////////////////////////////	
;;;99       else 	if(f.send_motopwm)
00038a  481e              LDR      r0,|L1.1028|
00038c  7b00              LDRB     r0,[r0,#0xc]  ; f
00038e  b1b8              CBZ      r0,|L1.960|
;;;100    	{
;;;101    		f.send_motopwm = 0;
000390  2000              MOVS     r0,#0
000392  491c              LDR      r1,|L1.1028|
000394  7308              STRB     r0,[r1,#0xc]
;;;102    		ANO_DT_Send_MotoPWM(Moto_duty[0],Moto_duty[1],Moto_duty[2],Moto_duty[3],0,0,0,0);
000396  9000              STR      r0,[sp,#0]
000398  9001              STR      r0,[sp,#4]
00039a  9002              STR      r0,[sp,#8]
00039c  9003              STR      r0,[sp,#0xc]
00039e  4827              LDR      r0,|L1.1084|
0003a0  88c0              LDRH     r0,[r0,#6]  ; Moto_duty
0003a2  900e              STR      r0,[sp,#0x38]
0003a4  4825              LDR      r0,|L1.1084|
0003a6  8880              LDRH     r0,[r0,#4]  ; Moto_duty
0003a8  900d              STR      r0,[sp,#0x34]
0003aa  4824              LDR      r0,|L1.1084|
0003ac  8840              LDRH     r0,[r0,#2]  ; Moto_duty
0003ae  900c              STR      r0,[sp,#0x30]
0003b0  4822              LDR      r0,|L1.1084|
0003b2  8800              LDRH     r0,[r0,#0]  ; Moto_duty
0003b4  900b              STR      r0,[sp,#0x2c]
0003b6  a90c              ADD      r1,sp,#0x30
0003b8  c90e              LDM      r1,{r1-r3}
0003ba  f7fffffe          BL       ANO_DT_Send_MotoPWM
0003be  e10c              B        |L1.1498|
                  |L1.960|
;;;103    	}	
;;;104    /////////////////////////////////////////////////////////////////////////////////////
;;;105      else 	if(f.send_rcdata)
0003c0  4810              LDR      r0,|L1.1028|
0003c2  7a80              LDRB     r0,[r0,#0xa]  ; f
0003c4  b3f0              CBZ      r0,|L1.1092|
;;;106    	{
;;;107    		f.send_rcdata = 0;
0003c6  2000              MOVS     r0,#0
0003c8  490e              LDR      r1,|L1.1028|
0003ca  7288              STRB     r0,[r1,#0xa]
;;;108    		ANO_DT_Send_RCData(RC_Pwm_In[2],RC_Pwm_In[3],RC_Pwm_In[0],RC_Pwm_In[1],RC_Pwm_In[4],RC_Pwm_In[5],RC_Pwm_In[6],0,0,0);
0003cc  2100              MOVS     r1,#0
0003ce  481c              LDR      r0,|L1.1088|
0003d0  8980              LDRH     r0,[r0,#0xc]  ; RC_Pwm_In
0003d2  e9cd0102          STRD     r0,r1,[sp,#8]
0003d6  9104              STR      r1,[sp,#0x10]
0003d8  4819              LDR      r0,|L1.1088|
0003da  9105              STR      r1,[sp,#0x14]
0003dc  8940              LDRH     r0,[r0,#0xa]  ; RC_Pwm_In
0003de  4918              LDR      r1,|L1.1088|
0003e0  8909              LDRH     r1,[r1,#8]  ; RC_Pwm_In
0003e2  e9cd1000          STRD     r1,r0,[sp,#0]
0003e6  4816              LDR      r0,|L1.1088|
0003e8  8840              LDRH     r0,[r0,#2]  ; RC_Pwm_In
0003ea  900e              STR      r0,[sp,#0x38]
0003ec  4814              LDR      r0,|L1.1088|
0003ee  8800              LDRH     r0,[r0,#0]  ; RC_Pwm_In
0003f0  900d              STR      r0,[sp,#0x34]
0003f2  4813              LDR      r0,|L1.1088|
0003f4  88c0              LDRH     r0,[r0,#6]  ; RC_Pwm_In
0003f6  900c              STR      r0,[sp,#0x30]
0003f8  4811              LDR      r0,|L1.1088|
0003fa  e024              B        |L1.1094|
                  |L1.1020|
                          DCD      ||cnt||
                  |L1.1024|
                          DCD      userdata_cnt
                  |L1.1028|
                          DCD      f
                  |L1.1032|
                          DCD      senser_cnt1
                  |L1.1036|
                          DCD      senser_cnt2
                  |L1.1040|
                          DCD      status_cnt
                  |L1.1044|
                          DCD      rcdata_cnt
                  |L1.1048|
                          DCD      motopwm_cnt
                  |L1.1052|
                          DCD      power_cnt
                  |L1.1056|
                          DCD      ctrl
                  |L1.1060|
                          DCD      0x42c80000
                  |L1.1064|
                          DCD      0x447a0000
                  |L1.1068|
                          DCD      baro_pid
                  |L1.1072|
                          DCD      ultra_pid
                  |L1.1076|
                          DCD      ultra_wz_speed_pid
                  |L1.1080|
                          DCD      baro_wz_speed_pid
                  |L1.1084|
                          DCD      Moto_duty
                  |L1.1088|
                          DCD      RC_Pwm_In
                  |L1.1092|
000444  e006              B        |L1.1108|
                  |L1.1094|
000446  8880              LDRH     r0,[r0,#4]  ; RC_Pwm_In
000448  900b              STR      r0,[sp,#0x2c]
00044a  a90c              ADD      r1,sp,#0x30
00044c  c90e              LDM      r1,{r1-r3}
00044e  f7fffffe          BL       ANO_DT_Send_RCData
000452  e0c2              B        |L1.1498|
                  |L1.1108|
;;;109    	}	
;;;110    /////////////////////////////////////////////////////////////////////////////////////
;;;111      else 	if(f.send_status)
000454  4862              LDR      r0,|L1.1504|
000456  7840              LDRB     r0,[r0,#1]  ; f
000458  b1f8              CBZ      r0,|L1.1178|
;;;112    	{
;;;113    		f.send_status = 0;
00045a  2000              MOVS     r0,#0
00045c  4960              LDR      r1,|L1.1504|
00045e  7048              STRB     r0,[r1,#1]
;;;114    		ANO_DT_Send_Status(AngE.Roll,AngE.Pitch,AngE.Yaw,ultra_dis_lpf/10,flag.FlightMode,flag.ARMED);
000460  4960              LDR      r1,|L1.1508|
000462  4861              LDR      r0,|L1.1512|
000464  6800              LDR      r0,[r0,#0]  ; ultra_dis_lpf
000466  f7fffffe          BL       __aeabi_fdiv
00046a  900d              STR      r0,[sp,#0x34]
00046c  f7fffffe          BL       __aeabi_f2iz
000470  900e              STR      r0,[sp,#0x38]
000472  485e              LDR      r0,|L1.1516|
000474  7940              LDRB     r0,[r0,#5]  ; flag
000476  495d              LDR      r1,|L1.1516|
000478  7cc9              LDRB     r1,[r1,#0x13]  ; flag
00047a  e9cd1000          STRD     r1,r0,[sp,#0]
00047e  485c              LDR      r0,|L1.1520|
000480  6880              LDR      r0,[r0,#8]  ; AngE
000482  900d              STR      r0,[sp,#0x34]
000484  485a              LDR      r0,|L1.1520|
000486  6800              LDR      r0,[r0,#0]  ; AngE
000488  900c              STR      r0,[sp,#0x30]
00048a  4859              LDR      r0,|L1.1520|
00048c  6840              LDR      r0,[r0,#4]  ; AngE
00048e  900b              STR      r0,[sp,#0x2c]
000490  a90c              ADD      r1,sp,#0x30
000492  c90e              LDM      r1,{r1-r3}
000494  f7fffffe          BL       ANO_DT_Send_Status
000498  e09f              B        |L1.1498|
                  |L1.1178|
;;;115    	}	
;;;116    /////////////////////////////////////////////////////////////////////////////////////
;;;117      else 	if(f.send_senser1)
00049a  4851              LDR      r0,|L1.1504|
00049c  7880              LDRB     r0,[r0,#2]  ; f
00049e  b370              CBZ      r0,|L1.1278|
;;;118    	{
;;;119    		f.send_senser1 = 0;
0004a0  2000              MOVS     r0,#0
0004a2  494f              LDR      r1,|L1.1504|
0004a4  7088              STRB     r0,[r1,#2]
;;;120    		ANO_DT_Send_Senser(sensor.acc.origin.x,sensor.acc.origin.y,sensor.acc.origin.z,
0004a6  4853              LDR      r0,|L1.1524|
0004a8  6803              LDR      r3,[r0,#0]  ; Pressure
0004aa  4853              LDR      r0,|L1.1528|
0004ac  f9b00004          LDRSH    r0,[r0,#4]  ; MAG
0004b0  4951              LDR      r1,|L1.1528|
0004b2  f9b11002          LDRSH    r1,[r1,#2]  ; MAG
0004b6  4a50              LDR      r2,|L1.1528|
0004b8  f9b22000          LDRSH    r2,[r2,#0]  ; MAG
0004bc  e9cd0304          STRD     r0,r3,[sp,#0x10]
0004c0  e9cd2102          STRD     r2,r1,[sp,#8]
0004c4  484d              LDR      r0,|L1.1532|
0004c6  f9b00038          LDRSH    r0,[r0,#0x38]
0004ca  494c              LDR      r1,|L1.1532|
0004cc  f9b11036          LDRSH    r1,[r1,#0x36]
0004d0  e9cd1000          STRD     r1,r0,[sp,#0]
0004d4  4849              LDR      r0,|L1.1532|
0004d6  f9b00034          LDRSH    r0,[r0,#0x34]  ; sensor
0004da  900e              STR      r0,[sp,#0x38]
0004dc  4847              LDR      r0,|L1.1532|
0004de  f9b00004          LDRSH    r0,[r0,#4]  ; sensor
0004e2  900d              STR      r0,[sp,#0x34]
0004e4  4845              LDR      r0,|L1.1532|
0004e6  f9b00002          LDRSH    r0,[r0,#2]  ; sensor
0004ea  900c              STR      r0,[sp,#0x30]
0004ec  4843              LDR      r0,|L1.1532|
0004ee  f9b00000          LDRSH    r0,[r0,#0]  ; sensor
0004f2  900b              STR      r0,[sp,#0x2c]
0004f4  a90c              ADD      r1,sp,#0x30
0004f6  c90e              LDM      r1,{r1-r3}
0004f8  f7fffffe          BL       ANO_DT_Send_Senser
0004fc  e06d              B        |L1.1498|
                  |L1.1278|
0004fe  e7ff              B        |L1.1280|
                  |L1.1280|
;;;121    												sensor.gyro.origin.x,sensor.gyro.origin.y,sensor.gyro.origin.z,
;;;122    												MAG[0],MAG[1],MAG[2],Pressure);	
;;;123    	}		
;;;124    	/////////////////////////////////////////////////////////////////////////////////////
;;;125      else 	if(f.send_senser2)
000500  4837              LDR      r0,|L1.1504|
000502  78c0              LDRB     r0,[r0,#3]  ; f
000504  b170              CBZ      r0,|L1.1316|
;;;126    	{
;;;127    		f.send_senser2 = 0;
000506  2000              MOVS     r0,#0
000508  4935              LDR      r1,|L1.1504|
00050a  70c8              STRB     r0,[r1,#3]
;;;128        ANO_DT_Send_Senser2(baro_height,ultra_dis_lpf/10);//		
00050c  4935              LDR      r1,|L1.1508|
00050e  4836              LDR      r0,|L1.1512|
000510  6800              LDR      r0,[r0,#0]  ; ultra_dis_lpf
000512  f7fffffe          BL       __aeabi_fdiv
000516  4601              MOV      r1,r0
000518  900e              STR      r0,[sp,#0x38]
00051a  4839              LDR      r0,|L1.1536|
00051c  6800              LDR      r0,[r0,#0]  ; baro_height
00051e  f7fffffe          BL       ANO_DT_Send_Senser2
000522  e05a              B        |L1.1498|
                  |L1.1316|
;;;129    	}		
;;;130    	/////////////////////////////////////////////////////////////////////////////////////
;;;131      else 	if(f.send_userdata1)
000524  482e              LDR      r0,|L1.1504|
000526  7b80              LDRB     r0,[r0,#0xe]  ; f
000528  b360              CBZ      r0,|L1.1412|
;;;132    	{
;;;133    		f.send_userdata1=0;
00052a  2000              MOVS     r0,#0
00052c  492c              LDR      r1,|L1.1504|
00052e  7388              STRB     r0,[r1,#0xe]
;;;134    		ANO_DT_Send_userdata(1,userdata1[0],userdata1[1],userdata1[2],userdata1[3],userdata1[4],userdata1[5],userdata1[6],userdata1[7],userdata1[8]
000530  4834              LDR      r0,|L1.1540|
000532  6ac0              LDR      r0,[r0,#0x2c]  ; userdata1
000534  4933              LDR      r1,|L1.1540|
000536  6a8a              LDR      r2,[r1,#0x28]  ; userdata1
000538  6a49              LDR      r1,[r1,#0x24]  ; userdata1
00053a  4b32              LDR      r3,|L1.1540|
00053c  6a1b              LDR      r3,[r3,#0x20]  ; userdata1
00053e  e9cd3105          STRD     r3,r1,[sp,#0x14]
000542  e9cd2007          STRD     r2,r0,[sp,#0x1c]
000546  482f              LDR      r0,|L1.1540|
000548  69c0              LDR      r0,[r0,#0x1c]  ; userdata1
00054a  492e              LDR      r1,|L1.1540|
00054c  6989              LDR      r1,[r1,#0x18]  ; userdata1
00054e  4a2d              LDR      r2,|L1.1540|
000550  6952              LDR      r2,[r2,#0x14]  ; userdata1
000552  4b2c              LDR      r3,|L1.1540|
000554  691b              LDR      r3,[r3,#0x10]  ; userdata1
000556  e9cd3201          STRD     r3,r2,[sp,#4]
00055a  e9cd1003          STRD     r1,r0,[sp,#0xc]
00055e  4829              LDR      r0,|L1.1540|
000560  68c0              LDR      r0,[r0,#0xc]  ; userdata1
000562  9000              STR      r0,[sp,#0]
000564  4827              LDR      r0,|L1.1540|
000566  6880              LDR      r0,[r0,#8]  ; userdata1
000568  900e              STR      r0,[sp,#0x38]
00056a  4826              LDR      r0,|L1.1540|
00056c  6840              LDR      r0,[r0,#4]  ; userdata1
00056e  900d              STR      r0,[sp,#0x34]
000570  4824              LDR      r0,|L1.1540|
000572  6800              LDR      r0,[r0,#0]  ; userdata1
000574  900c              STR      r0,[sp,#0x30]
000576  4601              MOV      r1,r0
000578  2001              MOVS     r0,#1
00057a  e9dd230d          LDRD     r2,r3,[sp,#0x34]
00057e  f7fffffe          BL       ANO_DT_Send_userdata
000582  e02a              B        |L1.1498|
                  |L1.1412|
;;;135    		,userdata1[9],userdata1[10],userdata1[11]);
;;;136    	}
;;;137      else if(f.send_userdata2)
000584  4816              LDR      r0,|L1.1504|
000586  7bc0              LDRB     r0,[r0,#0xf]  ; f
000588  b338              CBZ      r0,|L1.1498|
;;;138    	{
;;;139    		f.send_userdata2=0;
00058a  2000              MOVS     r0,#0
00058c  4914              LDR      r1,|L1.1504|
00058e  73c8              STRB     r0,[r1,#0xf]
;;;140    		ANO_DT_Send_userdata(2,realtime,userdata2[0],userdata2[1],userdata2[2],userdata2[3],userdata2[4],userdata2[5],userdata2[6],userdata2[7],userdata2[8]
000590  481d              LDR      r0,|L1.1544|
000592  6a81              LDR      r1,[r0,#0x28]  ; userdata2
000594  6a42              LDR      r2,[r0,#0x24]  ; userdata2
000596  6a00              LDR      r0,[r0,#0x20]  ; userdata2
000598  4b1b              LDR      r3,|L1.1544|
00059a  69db              LDR      r3,[r3,#0x1c]  ; userdata2
00059c  e9cd3005          STRD     r3,r0,[sp,#0x14]
0005a0  e9cd2107          STRD     r2,r1,[sp,#0x1c]
0005a4  4818              LDR      r0,|L1.1544|
0005a6  6981              LDR      r1,[r0,#0x18]  ; userdata2
0005a8  6940              LDR      r0,[r0,#0x14]  ; userdata2
0005aa  4a17              LDR      r2,|L1.1544|
0005ac  6912              LDR      r2,[r2,#0x10]  ; userdata2
0005ae  4b16              LDR      r3,|L1.1544|
0005b0  68db              LDR      r3,[r3,#0xc]  ; userdata2
0005b2  e9cd3201          STRD     r3,r2,[sp,#4]
0005b6  e9cd0103          STRD     r0,r1,[sp,#0xc]
0005ba  4813              LDR      r0,|L1.1544|
0005bc  6880              LDR      r0,[r0,#8]  ; userdata2
0005be  9000              STR      r0,[sp,#0]
0005c0  4811              LDR      r0,|L1.1544|
0005c2  6840              LDR      r0,[r0,#4]  ; userdata2
0005c4  900e              STR      r0,[sp,#0x38]
0005c6  4810              LDR      r0,|L1.1544|
0005c8  6800              LDR      r0,[r0,#0]  ; userdata2
0005ca  900d              STR      r0,[sp,#0x34]
0005cc  4602              MOV      r2,r0
0005ce  480f              LDR      r0,|L1.1548|
0005d0  9b0e              LDR      r3,[sp,#0x38]
0005d2  6801              LDR      r1,[r0,#0]  ; realtime
0005d4  2002              MOVS     r0,#2
0005d6  f7fffffe          BL       ANO_DT_Send_userdata
                  |L1.1498|
;;;141    		,userdata2[9],userdata2[10]);
;;;142    	}	
;;;143    	/////////////////////////////////////////////////////////////////////////////////////
;;;144    }
0005da  b00f              ADD      sp,sp,#0x3c
0005dc  bd00              POP      {pc}
;;;145    
                          ENDP

0005de  0000              DCW      0x0000
                  |L1.1504|
                          DCD      f
                  |L1.1508|
                          DCD      0x41200000
                  |L1.1512|
                          DCD      ultra_dis_lpf
                  |L1.1516|
                          DCD      flag
                  |L1.1520|
                          DCD      AngE
                  |L1.1524|
                          DCD      Pressure
                  |L1.1528|
                          DCD      MAG
                  |L1.1532|
                          DCD      sensor
                  |L1.1536|
                          DCD      baro_height
                  |L1.1540|
                          DCD      userdata1
                  |L1.1544|
                          DCD      userdata2
                  |L1.1548|
                          DCD      realtime

                          AREA ||i.ANO_DT_Data_Receive_Anl||, CODE, READONLY, ALIGN=2

                  ANO_DT_Data_Receive_Anl PROC
;;;198    
;;;199    void ANO_DT_Data_Receive_Anl(u8 *data_buf,u8 num)
000000  e92d47f0          PUSH     {r4-r10,lr}
;;;200    {
000004  4604              MOV      r4,r0
000006  4689              MOV      r9,r1
;;;201    	u8 sum = 0;
000008  f04f0a00          MOV      r10,#0
;;;202    	for(u8 i=0;i<(num-1);i++)
00000c  2000              MOVS     r0,#0
00000e  e005              B        |L2.28|
                  |L2.16|
;;;203    		sum += *(data_buf+i);
000010  5c21              LDRB     r1,[r4,r0]
000012  4451              ADD      r1,r1,r10
000014  f0010aff          AND      r10,r1,#0xff
000018  1c41              ADDS     r1,r0,#1              ;202
00001a  b2c8              UXTB     r0,r1                 ;202
                  |L2.28|
00001c  f1a90101          SUB      r1,r9,#1              ;202
000020  4281              CMP      r1,r0                 ;202
000022  dcf5              BGT      |L2.16|
;;;204    	if(!(sum==*(data_buf+num-1)))		return;		//判断sum
000024  eb040009          ADD      r0,r4,r9
000028  f8100c01          LDRB     r0,[r0,#-1]
00002c  4550              CMP      r0,r10
00002e  d001              BEQ      |L2.52|
                  |L2.48|
;;;205    	if(!(*(data_buf)==0xAA && *(data_buf+1)==0xAF))		return;		//判断帧头
;;;206    	
;;;207    	//功能字为01时
;;;208    	if(*(data_buf+2)==0X01)
;;;209    	{
;;;210    		if(*(data_buf+4)==0X01)
;;;211    			flag.calibratingA = 1;
;;;212    		if(*(data_buf+4)==0X02)
;;;213         flag.calibratingG = 1;
;;;214    		if(*(data_buf+4)==0X03)
;;;215    		{
;;;216    		flag.calibratingA = 1;
;;;217    		flag.calibratingG = 1;
;;;218    		}
;;;219    		if(*(data_buf+4)==0X04)
;;;220    		{
;;;221    		flag.calibratingM = 1;		
;;;222    		}
;;;223    	}
;;;224    	
;;;225    	//功能字为02时	
;;;226    	if(*(data_buf+2)==0X02)
;;;227    	{
;;;228    		if(*(data_buf+4)==0X01)
;;;229    		{
;;;230    			f.send_pid1 = 1;
;;;231    			f.send_pid2 = 1;
;;;232    			f.send_pid3 = 1;
;;;233    			f.send_pid4 = 1;
;;;234    			f.send_pid5 = 1;
;;;235    			f.send_pid6 = 1;
;;;236    		}
;;;237    		if(*(data_buf+4)==0X02)
;;;238    		{
;;;239    			
;;;240    		}
;;;241    		if(*(data_buf+4)==0XA0)		//读取版本信息
;;;242    		{
;;;243    			f.send_version = 1;
;;;244    		}
;;;245    	}
;;;246    	//功能字为0X10时	
;;;247    	if(*(data_buf+2)==0X10)								//PID1
;;;248        {
;;;249            ctrl.pitch.core.kp  = 0.01*( (vs16)(*(data_buf+4)<<8)|*(data_buf+5) );
;;;250            ctrl.pitch.core.ki  = 0.001*( (vs16)(*(data_buf+6)<<8)|*(data_buf+7) );
;;;251            ctrl.pitch.core.kd  = 0.01*( (vs16)(*(data_buf+8)<<8)|*(data_buf+9) );
;;;252            ctrl.roll.core.kp = 0.01*( (vs16)(*(data_buf+10)<<8)|*(data_buf+11) );
;;;253            ctrl.roll.core.ki = 0.001*( (vs16)(*(data_buf+12)<<8)|*(data_buf+13) );
;;;254            ctrl.roll.core.kd = 0.01*( (vs16)(*(data_buf+14)<<8)|*(data_buf+15) );
;;;255            ctrl.yaw.core.kp 	= 0.01*( (vs16)(*(data_buf+16)<<8)|*(data_buf+17) );
;;;256            ctrl.yaw.core.ki 	= 0.001*( (vs16)(*(data_buf+18)<<8)|*(data_buf+19) );
;;;257            ctrl.yaw.core.kd 	= 0.01*( (vs16)(*(data_buf+20)<<8)|*(data_buf+21) );
;;;258            ANO_DT_Send_Check(*(data_buf+2),sum);
;;;259    			  flag.ParamSave = 1;
;;;260        }
;;;261        if(*(data_buf+2)==0X11)								//PID2
;;;262        {
;;;263            ctrl.pitch.shell.kp 	= 0.01*( (vs16)(*(data_buf+4)<<8)|*(data_buf+5) );
;;;264            ctrl.pitch.shell.ki 	= 0.001*( (vs16)(*(data_buf+6)<<8)|*(data_buf+7) );
;;;265            ctrl.pitch.shell.kd 	= 0.01*( (vs16)(*(data_buf+8)<<8)|*(data_buf+9) );
;;;266            ctrl.roll.shell.kp 	= 0.01*( (vs16)(*(data_buf+10)<<8)|*(data_buf+11) );
;;;267            ctrl.roll.shell.ki 	= 0.001*( (vs16)(*(data_buf+12)<<8)|*(data_buf+13) );
;;;268            ctrl.roll.shell.kd 	= 0.01*( (vs16)(*(data_buf+14)<<8)|*(data_buf+15) );
;;;269            ctrl.yaw.shell.kp	  = 0.01*( (vs16)(*(data_buf+16)<<8)|*(data_buf+17) );
;;;270            ctrl.yaw.shell.ki 	= 0.001*( (vs16)(*(data_buf+18)<<8)|*(data_buf+19) );
;;;271            ctrl.yaw.shell.kd 	= 0.01*( (vs16)(*(data_buf+20)<<8)|*(data_buf+21) );
;;;272            ANO_DT_Send_Check(*(data_buf+2),sum);
;;;273    			  flag.ParamSave = 1;
;;;274        }
;;;275        if(*(data_buf+2)==0X12)								//PID3
;;;276        {	
;;;277            ultra_wz_speed_pid.kp  = 0.01*( (vs16)(*(data_buf+4)<<8)|*(data_buf+5) );
;;;278            ultra_wz_speed_pid.ki  = 0.001*( (vs16)(*(data_buf+6)<<8)|*(data_buf+7) );
;;;279            ultra_wz_speed_pid.kd  = 0.01*( (vs16)(*(data_buf+8)<<8)|*(data_buf+9) );
;;;280            ultra_pid.kp = 0.01*( (vs16)(*(data_buf+10)<<8)|*(data_buf+11) );
;;;281            ultra_pid.ki = 0.001*( (vs16)(*(data_buf+12)<<8)|*(data_buf+13) );
;;;282            ultra_pid.kd = 0.01*( (vs16)(*(data_buf+14)<<8)|*(data_buf+15) );
;;;283            baro_pid.kp 	= 0.01*( (vs16)(*(data_buf+16)<<8)|*(data_buf+17) );
;;;284            baro_pid.ki 	= 0.001*( (vs16)(*(data_buf+18)<<8)|*(data_buf+19) );
;;;285            baro_pid.kd 	= 0.01*( (vs16)(*(data_buf+20)<<8)|*(data_buf+21) );
;;;286            ANO_DT_Send_Check(*(data_buf+2),sum);
;;;287            flag.ParamSave = 1;
;;;288        }
;;;289    	if(*(data_buf+2)==0X13)								//PID4
;;;290    	{
;;;291            baro_wz_speed_pid.kp  = 0.01*( (vs16)(*(data_buf+4)<<8)|*(data_buf+5) );
;;;292            baro_wz_speed_pid.ki  = 0.001*( (vs16)(*(data_buf+6)<<8)|*(data_buf+7) );
;;;293            baro_wz_speed_pid.kd  = 0.01*( (vs16)(*(data_buf+8)<<8)|*(data_buf+9) );
;;;294    				ANO_DT_Send_Check(*(data_buf+2),sum);
;;;295    				flag.ParamSave = 1;
;;;296    	}
;;;297    	if(*(data_buf+2)==0X14)								//PID5
;;;298    	{
;;;299    		ANO_DT_Send_Check(*(data_buf+2),sum);
;;;300    	}
;;;301    	if(*(data_buf+2)==0X15)								//PID6
;;;302    	{
;;;303    		ANO_DT_Send_Check(*(data_buf+2),sum);
;;;304    	}
;;;305    }
000030  e8bd87f0          POP      {r4-r10,pc}
                  |L2.52|
000034  7820              LDRB     r0,[r4,#0]            ;205
000036  28aa              CMP      r0,#0xaa              ;205
000038  d102              BNE      |L2.64|
00003a  7860              LDRB     r0,[r4,#1]            ;205
00003c  28af              CMP      r0,#0xaf              ;205
00003e  d000              BEQ      |L2.66|
                  |L2.64|
000040  e7f6              B        |L2.48|
                  |L2.66|
000042  78a0              LDRB     r0,[r4,#2]            ;208
000044  2801              CMP      r0,#1                 ;208
000046  d117              BNE      |L2.120|
000048  7920              LDRB     r0,[r4,#4]            ;210
00004a  2801              CMP      r0,#1                 ;210
00004c  d101              BNE      |L2.82|
00004e  49fe              LDR      r1,|L2.1096|
000050  71c8              STRB     r0,[r1,#7]            ;211
                  |L2.82|
000052  7920              LDRB     r0,[r4,#4]            ;212
000054  2802              CMP      r0,#2                 ;212
000056  d102              BNE      |L2.94|
000058  2001              MOVS     r0,#1                 ;213
00005a  49fb              LDR      r1,|L2.1096|
00005c  7288              STRB     r0,[r1,#0xa]          ;213
                  |L2.94|
00005e  7920              LDRB     r0,[r4,#4]            ;214
000060  2803              CMP      r0,#3                 ;214
000062  d103              BNE      |L2.108|
000064  2001              MOVS     r0,#1                 ;216
000066  49f8              LDR      r1,|L2.1096|
000068  71c8              STRB     r0,[r1,#7]            ;216
00006a  7288              STRB     r0,[r1,#0xa]          ;217
                  |L2.108|
00006c  7920              LDRB     r0,[r4,#4]            ;219
00006e  2804              CMP      r0,#4                 ;219
000070  d102              BNE      |L2.120|
000072  2001              MOVS     r0,#1                 ;221
000074  49f4              LDR      r1,|L2.1096|
000076  7208              STRB     r0,[r1,#8]            ;221
                  |L2.120|
000078  78a0              LDRB     r0,[r4,#2]            ;226
00007a  2802              CMP      r0,#2                 ;226
00007c  d10f              BNE      |L2.158|
00007e  7920              LDRB     r0,[r4,#4]            ;228
000080  2801              CMP      r0,#1                 ;228
000082  d106              BNE      |L2.146|
000084  49f1              LDR      r1,|L2.1100|
000086  7108              STRB     r0,[r1,#4]            ;230
000088  7148              STRB     r0,[r1,#5]            ;231
00008a  7188              STRB     r0,[r1,#6]            ;232
00008c  71c8              STRB     r0,[r1,#7]            ;233
00008e  7208              STRB     r0,[r1,#8]            ;234
000090  7248              STRB     r0,[r1,#9]            ;235
                  |L2.146|
000092  7920              LDRB     r0,[r4,#4]            ;241
000094  28a0              CMP      r0,#0xa0              ;241
000096  d102              BNE      |L2.158|
000098  2001              MOVS     r0,#1                 ;243
00009a  49ec              LDR      r1,|L2.1100|
00009c  7008              STRB     r0,[r1,#0]            ;243
                  |L2.158|
00009e  78a0              LDRB     r0,[r4,#2]            ;247
0000a0  2810              CMP      r0,#0x10              ;247
0000a2  d17d              BNE      |L2.416|
0000a4  7921              LDRB     r1,[r4,#4]            ;249
0000a6  0209              LSLS     r1,r1,#8              ;249
0000a8  b209              SXTH     r1,r1                 ;249
0000aa  7962              LDRB     r2,[r4,#5]            ;249
0000ac  ea410002          ORR      r0,r1,r2              ;249
0000b0  f7fffffe          BL       __aeabi_i2d
0000b4  4607              MOV      r7,r0                 ;249
0000b6  4ae6              LDR      r2,|L2.1104|
0000b8  4be6              LDR      r3,|L2.1108|
0000ba  f7fffffe          BL       __aeabi_dmul
0000be  4605              MOV      r5,r0                 ;249
0000c0  f7fffffe          BL       __aeabi_d2f
0000c4  49e4              LDR      r1,|L2.1112|
0000c6  6288              STR      r0,[r1,#0x28]         ;249
0000c8  79a1              LDRB     r1,[r4,#6]            ;250
0000ca  0209              LSLS     r1,r1,#8              ;250
0000cc  b209              SXTH     r1,r1                 ;250
0000ce  79e2              LDRB     r2,[r4,#7]            ;250
0000d0  ea410002          ORR      r0,r1,r2              ;250
0000d4  f7fffffe          BL       __aeabi_i2d
0000d8  4607              MOV      r7,r0                 ;250
0000da  4ae0              LDR      r2,|L2.1116|
0000dc  4be0              LDR      r3,|L2.1120|
0000de  f7fffffe          BL       __aeabi_dmul
0000e2  4605              MOV      r5,r0                 ;250
0000e4  f7fffffe          BL       __aeabi_d2f
0000e8  4601              MOV      r1,r0                 ;250
0000ea  48db              LDR      r0,|L2.1112|
0000ec  62c1              STR      r1,[r0,#0x2c]         ;250
0000ee  7a21              LDRB     r1,[r4,#8]            ;251
0000f0  0209              LSLS     r1,r1,#8              ;251
0000f2  b209              SXTH     r1,r1                 ;251
0000f4  7a62              LDRB     r2,[r4,#9]            ;251
0000f6  ea410002          ORR      r0,r1,r2              ;251
0000fa  f7fffffe          BL       __aeabi_i2d
0000fe  4607              MOV      r7,r0                 ;251
000100  4ad3              LDR      r2,|L2.1104|
000102  4bd4              LDR      r3,|L2.1108|
000104  f7fffffe          BL       __aeabi_dmul
000108  4605              MOV      r5,r0                 ;251
00010a  f7fffffe          BL       __aeabi_d2f
00010e  4601              MOV      r1,r0                 ;251
000110  48d1              LDR      r0,|L2.1112|
000112  6301              STR      r1,[r0,#0x30]         ;251
000114  7aa1              LDRB     r1,[r4,#0xa]          ;252
000116  0209              LSLS     r1,r1,#8              ;252
000118  b209              SXTH     r1,r1                 ;252
00011a  7ae2              LDRB     r2,[r4,#0xb]          ;252
00011c  ea410002          ORR      r0,r1,r2              ;252
000120  f7fffffe          BL       __aeabi_i2d
000124  4607              MOV      r7,r0                 ;252
000126  4aca              LDR      r2,|L2.1104|
000128  4bca              LDR      r3,|L2.1108|
00012a  f7fffffe          BL       __aeabi_dmul
00012e  4605              MOV      r5,r0                 ;252
000130  f7fffffe          BL       __aeabi_d2f
000134  49c8              LDR      r1,|L2.1112|
000136  6708              STR      r0,[r1,#0x70]         ;252
000138  7b21              LDRB     r1,[r4,#0xc]          ;253
00013a  0209              LSLS     r1,r1,#8              ;253
00013c  b209              SXTH     r1,r1                 ;253
00013e  7b62              LDRB     r2,[r4,#0xd]          ;253
000140  ea410002          ORR      r0,r1,r2              ;253
000144  f7fffffe          BL       __aeabi_i2d
000148  4607              MOV      r7,r0                 ;253
00014a  4ac4              LDR      r2,|L2.1116|
00014c  4bc4              LDR      r3,|L2.1120|
00014e  f7fffffe          BL       __aeabi_dmul
000152  4605              MOV      r5,r0                 ;253
000154  f7fffffe          BL       __aeabi_d2f
000158  4601              MOV      r1,r0                 ;253
00015a  48bf              LDR      r0,|L2.1112|
00015c  6741              STR      r1,[r0,#0x74]         ;253
00015e  7ba1              LDRB     r1,[r4,#0xe]          ;254
000160  0209              LSLS     r1,r1,#8              ;254
000162  b209              SXTH     r1,r1                 ;254
000164  7be2              LDRB     r2,[r4,#0xf]          ;254
000166  ea410002          ORR      r0,r1,r2              ;254
00016a  f7fffffe          BL       __aeabi_i2d
00016e  4607              MOV      r7,r0                 ;254
000170  4ab7              LDR      r2,|L2.1104|
000172  4bb8              LDR      r3,|L2.1108|
000174  f7fffffe          BL       __aeabi_dmul
000178  4605              MOV      r5,r0                 ;254
00017a  f7fffffe          BL       __aeabi_d2f
00017e  4601              MOV      r1,r0                 ;254
000180  48b5              LDR      r0,|L2.1112|
000182  6781              STR      r1,[r0,#0x78]         ;254
000184  7c21              LDRB     r1,[r4,#0x10]         ;255
000186  0209              LSLS     r1,r1,#8              ;255
000188  b209              SXTH     r1,r1                 ;255
00018a  7c62              LDRB     r2,[r4,#0x11]         ;255
00018c  ea410002          ORR      r0,r1,r2              ;255
000190  f7fffffe          BL       __aeabi_i2d
000194  4607              MOV      r7,r0                 ;255
000196  4aae              LDR      r2,|L2.1104|
000198  4bae              LDR      r3,|L2.1108|
00019a  f7fffffe          BL       __aeabi_dmul
00019e  e000              B        |L2.418|
                  |L2.416|
0001a0  e034              B        |L2.524|
                  |L2.418|
0001a2  4605              MOV      r5,r0                 ;255
0001a4  f7fffffe          BL       __aeabi_d2f
0001a8  49ab              LDR      r1,|L2.1112|
0001aa  f8c100b8          STR      r0,[r1,#0xb8]         ;255
0001ae  7ca1              LDRB     r1,[r4,#0x12]         ;256
0001b0  0209              LSLS     r1,r1,#8              ;256
0001b2  b209              SXTH     r1,r1                 ;256
0001b4  7ce2              LDRB     r2,[r4,#0x13]         ;256
0001b6  ea410002          ORR      r0,r1,r2              ;256
0001ba  f7fffffe          BL       __aeabi_i2d
0001be  4607              MOV      r7,r0                 ;256
0001c0  4aa6              LDR      r2,|L2.1116|
0001c2  4ba7              LDR      r3,|L2.1120|
0001c4  f7fffffe          BL       __aeabi_dmul
0001c8  4605              MOV      r5,r0                 ;256
0001ca  f7fffffe          BL       __aeabi_d2f
0001ce  4601              MOV      r1,r0                 ;256
0001d0  48a1              LDR      r0,|L2.1112|
0001d2  f8c010bc          STR      r1,[r0,#0xbc]         ;256
0001d6  7d21              LDRB     r1,[r4,#0x14]         ;257
0001d8  0209              LSLS     r1,r1,#8              ;257
0001da  b209              SXTH     r1,r1                 ;257
0001dc  7d62              LDRB     r2,[r4,#0x15]         ;257
0001de  ea410002          ORR      r0,r1,r2              ;257
0001e2  f7fffffe          BL       __aeabi_i2d
0001e6  4607              MOV      r7,r0                 ;257
0001e8  4a99              LDR      r2,|L2.1104|
0001ea  4b9a              LDR      r3,|L2.1108|
0001ec  f7fffffe          BL       __aeabi_dmul
0001f0  4605              MOV      r5,r0                 ;257
0001f2  f7fffffe          BL       __aeabi_d2f
0001f6  4601              MOV      r1,r0                 ;257
0001f8  4897              LDR      r0,|L2.1112|
0001fa  f8c010c0          STR      r1,[r0,#0xc0]         ;257
0001fe  78a0              LDRB     r0,[r4,#2]            ;258
000200  4651              MOV      r1,r10                ;258
000202  f7fffffe          BL       ANO_DT_Send_Check
000206  2001              MOVS     r0,#1                 ;259
000208  498f              LDR      r1,|L2.1096|
00020a  72c8              STRB     r0,[r1,#0xb]          ;259
                  |L2.524|
00020c  78a0              LDRB     r0,[r4,#2]            ;261
00020e  2811              CMP      r0,#0x11              ;261
000210  d17d              BNE      |L2.782|
000212  7921              LDRB     r1,[r4,#4]            ;263
000214  0209              LSLS     r1,r1,#8              ;263
000216  b209              SXTH     r1,r1                 ;263
000218  7962              LDRB     r2,[r4,#5]            ;263
00021a  ea410002          ORR      r0,r1,r2              ;263
00021e  f7fffffe          BL       __aeabi_i2d
000222  4607              MOV      r7,r0                 ;263
000224  4a8a              LDR      r2,|L2.1104|
000226  4b8b              LDR      r3,|L2.1108|
000228  f7fffffe          BL       __aeabi_dmul
00022c  4605              MOV      r5,r0                 ;263
00022e  f7fffffe          BL       __aeabi_d2f
000232  4989              LDR      r1,|L2.1112|
000234  6048              STR      r0,[r1,#4]            ;263  ; ctrl
000236  79a1              LDRB     r1,[r4,#6]            ;264
000238  0209              LSLS     r1,r1,#8              ;264
00023a  b209              SXTH     r1,r1                 ;264
00023c  79e2              LDRB     r2,[r4,#7]            ;264
00023e  ea410002          ORR      r0,r1,r2              ;264
000242  f7fffffe          BL       __aeabi_i2d
000246  4607              MOV      r7,r0                 ;264
000248  4a84              LDR      r2,|L2.1116|
00024a  4b85              LDR      r3,|L2.1120|
00024c  f7fffffe          BL       __aeabi_dmul
000250  4605              MOV      r5,r0                 ;264
000252  f7fffffe          BL       __aeabi_d2f
000256  4980              LDR      r1,|L2.1112|
000258  6088              STR      r0,[r1,#8]            ;264
00025a  7a21              LDRB     r1,[r4,#8]            ;265
00025c  0209              LSLS     r1,r1,#8              ;265
00025e  b209              SXTH     r1,r1                 ;265
000260  7a62              LDRB     r2,[r4,#9]            ;265
000262  ea410002          ORR      r0,r1,r2              ;265
000266  f7fffffe          BL       __aeabi_i2d
00026a  4607              MOV      r7,r0                 ;265
00026c  4a78              LDR      r2,|L2.1104|
00026e  4b79              LDR      r3,|L2.1108|
000270  f7fffffe          BL       __aeabi_dmul
000274  4605              MOV      r5,r0                 ;265
000276  f7fffffe          BL       __aeabi_d2f
00027a  4977              LDR      r1,|L2.1112|
00027c  60c8              STR      r0,[r1,#0xc]          ;265
00027e  7aa1              LDRB     r1,[r4,#0xa]          ;266
000280  0209              LSLS     r1,r1,#8              ;266
000282  b209              SXTH     r1,r1                 ;266
000284  7ae2              LDRB     r2,[r4,#0xb]          ;266
000286  ea410002          ORR      r0,r1,r2              ;266
00028a  f7fffffe          BL       __aeabi_i2d
00028e  4607              MOV      r7,r0                 ;266
000290  4a6f              LDR      r2,|L2.1104|
000292  4b70              LDR      r3,|L2.1108|
000294  f7fffffe          BL       __aeabi_dmul
000298  4605              MOV      r5,r0                 ;266
00029a  f7fffffe          BL       __aeabi_d2f
00029e  496e              LDR      r1,|L2.1112|
0002a0  64c8              STR      r0,[r1,#0x4c]         ;266  ; ctrl
0002a2  7b21              LDRB     r1,[r4,#0xc]          ;267
0002a4  0209              LSLS     r1,r1,#8              ;267
0002a6  b209              SXTH     r1,r1                 ;267
0002a8  7b62              LDRB     r2,[r4,#0xd]          ;267
0002aa  ea410002          ORR      r0,r1,r2              ;267
0002ae  f7fffffe          BL       __aeabi_i2d
0002b2  4607              MOV      r7,r0                 ;267
0002b4  4a69              LDR      r2,|L2.1116|
0002b6  4b6a              LDR      r3,|L2.1120|
0002b8  f7fffffe          BL       __aeabi_dmul
0002bc  4605              MOV      r5,r0                 ;267
0002be  f7fffffe          BL       __aeabi_d2f
0002c2  4965              LDR      r1,|L2.1112|
0002c4  6508              STR      r0,[r1,#0x50]         ;267
0002c6  7ba1              LDRB     r1,[r4,#0xe]          ;268
0002c8  0209              LSLS     r1,r1,#8              ;268
0002ca  b209              SXTH     r1,r1                 ;268
0002cc  7be2              LDRB     r2,[r4,#0xf]          ;268
0002ce  ea410002          ORR      r0,r1,r2              ;268
0002d2  f7fffffe          BL       __aeabi_i2d
0002d6  4607              MOV      r7,r0                 ;268
0002d8  4a5d              LDR      r2,|L2.1104|
0002da  4b5e              LDR      r3,|L2.1108|
0002dc  f7fffffe          BL       __aeabi_dmul
0002e0  4605              MOV      r5,r0                 ;268
0002e2  f7fffffe          BL       __aeabi_d2f
0002e6  495c              LDR      r1,|L2.1112|
0002e8  6548              STR      r0,[r1,#0x54]         ;268
0002ea  7c21              LDRB     r1,[r4,#0x10]         ;269
0002ec  0209              LSLS     r1,r1,#8              ;269
0002ee  b209              SXTH     r1,r1                 ;269
0002f0  7c62              LDRB     r2,[r4,#0x11]         ;269
0002f2  ea410002          ORR      r0,r1,r2              ;269
0002f6  f7fffffe          BL       __aeabi_i2d
0002fa  4607              MOV      r7,r0                 ;269
0002fc  4a54              LDR      r2,|L2.1104|
0002fe  4b55              LDR      r3,|L2.1108|
000300  f7fffffe          BL       __aeabi_dmul
000304  4605              MOV      r5,r0                 ;269
000306  f7fffffe          BL       __aeabi_d2f
00030a  4953              LDR      r1,|L2.1112|
00030c  e000              B        |L2.784|
                  |L2.782|
00030e  e02e              B        |L2.878|
                  |L2.784|
000310  f8c10094          STR      r0,[r1,#0x94]         ;269  ; ctrl
000314  7ca1              LDRB     r1,[r4,#0x12]         ;270
000316  0209              LSLS     r1,r1,#8              ;270
000318  b209              SXTH     r1,r1                 ;270
00031a  7ce2              LDRB     r2,[r4,#0x13]         ;270
00031c  ea410002          ORR      r0,r1,r2              ;270
000320  f7fffffe          BL       __aeabi_i2d
000324  4607              MOV      r7,r0                 ;270
000326  4a4d              LDR      r2,|L2.1116|
000328  4b4d              LDR      r3,|L2.1120|
00032a  f7fffffe          BL       __aeabi_dmul
00032e  4605              MOV      r5,r0                 ;270
000330  f7fffffe          BL       __aeabi_d2f
000334  4948              LDR      r1,|L2.1112|
000336  f8c10098          STR      r0,[r1,#0x98]         ;270
00033a  7d21              LDRB     r1,[r4,#0x14]         ;271
00033c  0209              LSLS     r1,r1,#8              ;271
00033e  b209              SXTH     r1,r1                 ;271
000340  7d62              LDRB     r2,[r4,#0x15]         ;271
000342  ea410002          ORR      r0,r1,r2              ;271
000346  f7fffffe          BL       __aeabi_i2d
00034a  4607              MOV      r7,r0                 ;271
00034c  4a40              LDR      r2,|L2.1104|
00034e  4b41              LDR      r3,|L2.1108|
000350  f7fffffe          BL       __aeabi_dmul
000354  4605              MOV      r5,r0                 ;271
000356  f7fffffe          BL       __aeabi_d2f
00035a  493f              LDR      r1,|L2.1112|
00035c  f8c1009c          STR      r0,[r1,#0x9c]         ;271
000360  78a0              LDRB     r0,[r4,#2]            ;272
000362  4651              MOV      r1,r10                ;272
000364  f7fffffe          BL       ANO_DT_Send_Check
000368  2001              MOVS     r0,#1                 ;273
00036a  4937              LDR      r1,|L2.1096|
00036c  72c8              STRB     r0,[r1,#0xb]          ;273
                  |L2.878|
00036e  78a0              LDRB     r0,[r4,#2]            ;275
000370  2812              CMP      r0,#0x12              ;275
000372  d168              BNE      |L2.1094|
000374  7921              LDRB     r1,[r4,#4]            ;277
000376  0209              LSLS     r1,r1,#8              ;277
000378  b209              SXTH     r1,r1                 ;277
00037a  7962              LDRB     r2,[r4,#5]            ;277
00037c  ea410002          ORR      r0,r1,r2              ;277
000380  f7fffffe          BL       __aeabi_i2d
000384  4605              MOV      r5,r0                 ;277
000386  4a32              LDR      r2,|L2.1104|
000388  4b32              LDR      r3,|L2.1108|
00038a  f7fffffe          BL       __aeabi_dmul
00038e  4607              MOV      r7,r0                 ;277
000390  f7fffffe          BL       __aeabi_d2f
000394  4933              LDR      r1,|L2.1124|
000396  6008              STR      r0,[r1,#0]            ;277  ; ultra_wz_speed_pid
000398  79a1              LDRB     r1,[r4,#6]            ;278
00039a  0209              LSLS     r1,r1,#8              ;278
00039c  b209              SXTH     r1,r1                 ;278
00039e  79e2              LDRB     r2,[r4,#7]            ;278
0003a0  ea410002          ORR      r0,r1,r2              ;278
0003a4  f7fffffe          BL       __aeabi_i2d
0003a8  4605              MOV      r5,r0                 ;278
0003aa  4a2c              LDR      r2,|L2.1116|
0003ac  4b2c              LDR      r3,|L2.1120|
0003ae  f7fffffe          BL       __aeabi_dmul
0003b2  4607              MOV      r7,r0                 ;278
0003b4  f7fffffe          BL       __aeabi_d2f
0003b8  492a              LDR      r1,|L2.1124|
0003ba  6088              STR      r0,[r1,#8]            ;278  ; ultra_wz_speed_pid
0003bc  7a21              LDRB     r1,[r4,#8]            ;279
0003be  0209              LSLS     r1,r1,#8              ;279
0003c0  b209              SXTH     r1,r1                 ;279
0003c2  7a62              LDRB     r2,[r4,#9]            ;279
0003c4  ea410002          ORR      r0,r1,r2              ;279
0003c8  f7fffffe          BL       __aeabi_i2d
0003cc  4605              MOV      r5,r0                 ;279
0003ce  4a20              LDR      r2,|L2.1104|
0003d0  4b20              LDR      r3,|L2.1108|
0003d2  f7fffffe          BL       __aeabi_dmul
0003d6  4607              MOV      r7,r0                 ;279
0003d8  f7fffffe          BL       __aeabi_d2f
0003dc  4921              LDR      r1,|L2.1124|
0003de  6048              STR      r0,[r1,#4]            ;279  ; ultra_wz_speed_pid
0003e0  7aa1              LDRB     r1,[r4,#0xa]          ;280
0003e2  0209              LSLS     r1,r1,#8              ;280
0003e4  b209              SXTH     r1,r1                 ;280
0003e6  7ae2              LDRB     r2,[r4,#0xb]          ;280
0003e8  ea410002          ORR      r0,r1,r2              ;280
0003ec  f7fffffe          BL       __aeabi_i2d
0003f0  4607              MOV      r7,r0                 ;280
0003f2  4a17              LDR      r2,|L2.1104|
0003f4  4b17              LDR      r3,|L2.1108|
0003f6  f7fffffe          BL       __aeabi_dmul
0003fa  4605              MOV      r5,r0                 ;280
0003fc  f7fffffe          BL       __aeabi_d2f
000400  4919              LDR      r1,|L2.1128|
000402  6008              STR      r0,[r1,#0]            ;280  ; ultra_pid
000404  7b21              LDRB     r1,[r4,#0xc]          ;281
000406  0209              LSLS     r1,r1,#8              ;281
000408  b209              SXTH     r1,r1                 ;281
00040a  7b62              LDRB     r2,[r4,#0xd]          ;281
00040c  ea410002          ORR      r0,r1,r2              ;281
000410  f7fffffe          BL       __aeabi_i2d
000414  4605              MOV      r5,r0                 ;281
000416  4a11              LDR      r2,|L2.1116|
000418  4b11              LDR      r3,|L2.1120|
00041a  f7fffffe          BL       __aeabi_dmul
00041e  4607              MOV      r7,r0                 ;281
000420  f7fffffe          BL       __aeabi_d2f
000424  4910              LDR      r1,|L2.1128|
000426  6088              STR      r0,[r1,#8]            ;281  ; ultra_pid
000428  7ba1              LDRB     r1,[r4,#0xe]          ;282
00042a  0209              LSLS     r1,r1,#8              ;282
00042c  b209              SXTH     r1,r1                 ;282
00042e  7be2              LDRB     r2,[r4,#0xf]          ;282
000430  ea410002          ORR      r0,r1,r2              ;282
000434  f7fffffe          BL       __aeabi_i2d
000438  4605              MOV      r5,r0                 ;282
00043a  4a05              LDR      r2,|L2.1104|
00043c  4b05              LDR      r3,|L2.1108|
00043e  f7fffffe          BL       __aeabi_dmul
000442  4607              MOV      r7,r0                 ;282
000444  e012              B        |L2.1132|
                  |L2.1094|
000446  e052              B        |L2.1262|
                  |L2.1096|
                          DCD      flag
                  |L2.1100|
                          DCD      f
                  |L2.1104|
                          DCD      0x47ae147b
                  |L2.1108|
                          DCD      0x3f847ae1
                  |L2.1112|
                          DCD      ctrl
                  |L2.1116|
                          DCD      0xd2f1a9fc
                  |L2.1120|
                          DCD      0x3f50624d
                  |L2.1124|
                          DCD      ultra_wz_speed_pid
                  |L2.1128|
                          DCD      ultra_pid
                  |L2.1132|
00046c  f7fffffe          BL       __aeabi_d2f
000470  4947              LDR      r1,|L2.1424|
000472  6048              STR      r0,[r1,#4]            ;282  ; ultra_pid
000474  7c21              LDRB     r1,[r4,#0x10]         ;283
000476  0209              LSLS     r1,r1,#8              ;283
000478  b209              SXTH     r1,r1                 ;283
00047a  7c62              LDRB     r2,[r4,#0x11]         ;283
00047c  ea410002          ORR      r0,r1,r2              ;283
000480  f7fffffe          BL       __aeabi_i2d
000484  4605              MOV      r5,r0                 ;283
000486  4a43              LDR      r2,|L2.1428|
000488  4b43              LDR      r3,|L2.1432|
00048a  f7fffffe          BL       __aeabi_dmul
00048e  4607              MOV      r7,r0                 ;283
000490  f7fffffe          BL       __aeabi_d2f
000494  4941              LDR      r1,|L2.1436|
000496  6008              STR      r0,[r1,#0]            ;283  ; baro_pid
000498  7ca1              LDRB     r1,[r4,#0x12]         ;284
00049a  0209              LSLS     r1,r1,#8              ;284
00049c  b209              SXTH     r1,r1                 ;284
00049e  7ce2              LDRB     r2,[r4,#0x13]         ;284
0004a0  ea410002          ORR      r0,r1,r2              ;284
0004a4  f7fffffe          BL       __aeabi_i2d
0004a8  4607              MOV      r7,r0                 ;284
0004aa  4a3d              LDR      r2,|L2.1440|
0004ac  4b3d              LDR      r3,|L2.1444|
0004ae  f7fffffe          BL       __aeabi_dmul
0004b2  4605              MOV      r5,r0                 ;284
0004b4  f7fffffe          BL       __aeabi_d2f
0004b8  4938              LDR      r1,|L2.1436|
0004ba  6088              STR      r0,[r1,#8]            ;284  ; baro_pid
0004bc  7d21              LDRB     r1,[r4,#0x14]         ;285
0004be  0209              LSLS     r1,r1,#8              ;285
0004c0  b209              SXTH     r1,r1                 ;285
0004c2  7d62              LDRB     r2,[r4,#0x15]         ;285
0004c4  ea410002          ORR      r0,r1,r2              ;285
0004c8  f7fffffe          BL       __aeabi_i2d
0004cc  4605              MOV      r5,r0                 ;285
0004ce  4a31              LDR      r2,|L2.1428|
0004d0  4b31              LDR      r3,|L2.1432|
0004d2  f7fffffe          BL       __aeabi_dmul
0004d6  4607              MOV      r7,r0                 ;285
0004d8  f7fffffe          BL       __aeabi_d2f
0004dc  492f              LDR      r1,|L2.1436|
0004de  6048              STR      r0,[r1,#4]            ;285  ; baro_pid
0004e0  78a0              LDRB     r0,[r4,#2]            ;286
0004e2  4651              MOV      r1,r10                ;286
0004e4  f7fffffe          BL       ANO_DT_Send_Check
0004e8  2001              MOVS     r0,#1                 ;287
0004ea  492f              LDR      r1,|L2.1448|
0004ec  72c8              STRB     r0,[r1,#0xb]          ;287
                  |L2.1262|
0004ee  78a0              LDRB     r0,[r4,#2]            ;289
0004f0  2813              CMP      r0,#0x13              ;289
0004f2  d13c              BNE      |L2.1390|
0004f4  7921              LDRB     r1,[r4,#4]            ;291
0004f6  0209              LSLS     r1,r1,#8              ;291
0004f8  b209              SXTH     r1,r1                 ;291
0004fa  7962              LDRB     r2,[r4,#5]            ;291
0004fc  ea410002          ORR      r0,r1,r2              ;291
000500  f7fffffe          BL       __aeabi_i2d
000504  4605              MOV      r5,r0                 ;291
000506  4a23              LDR      r2,|L2.1428|
000508  4b23              LDR      r3,|L2.1432|
00050a  f7fffffe          BL       __aeabi_dmul
00050e  4607              MOV      r7,r0                 ;291
000510  f7fffffe          BL       __aeabi_d2f
000514  4925              LDR      r1,|L2.1452|
000516  6008              STR      r0,[r1,#0]            ;291  ; baro_wz_speed_pid
000518  79a1              LDRB     r1,[r4,#6]            ;292
00051a  0209              LSLS     r1,r1,#8              ;292
00051c  b209              SXTH     r1,r1                 ;292
00051e  79e2              LDRB     r2,[r4,#7]            ;292
000520  ea410002          ORR      r0,r1,r2              ;292
000524  f7fffffe          BL       __aeabi_i2d
000528  4605              MOV      r5,r0                 ;292
00052a  4a1d              LDR      r2,|L2.1440|
00052c  4b1d              LDR      r3,|L2.1444|
00052e  f7fffffe          BL       __aeabi_dmul
000532  4607              MOV      r7,r0                 ;292
000534  f7fffffe          BL       __aeabi_d2f
000538  491c              LDR      r1,|L2.1452|
00053a  6088              STR      r0,[r1,#8]            ;292  ; baro_wz_speed_pid
00053c  7a21              LDRB     r1,[r4,#8]            ;293
00053e  0209              LSLS     r1,r1,#8              ;293
000540  b209              SXTH     r1,r1                 ;293
000542  7a62              LDRB     r2,[r4,#9]            ;293
000544  ea410002          ORR      r0,r1,r2              ;293
000548  f7fffffe          BL       __aeabi_i2d
00054c  4605              MOV      r5,r0                 ;293
00054e  4a11              LDR      r2,|L2.1428|
000550  4b11              LDR      r3,|L2.1432|
000552  f7fffffe          BL       __aeabi_dmul
000556  4607              MOV      r7,r0                 ;293
000558  f7fffffe          BL       __aeabi_d2f
00055c  4913              LDR      r1,|L2.1452|
00055e  6048              STR      r0,[r1,#4]            ;293  ; baro_wz_speed_pid
000560  78a0              LDRB     r0,[r4,#2]            ;294
000562  4651              MOV      r1,r10                ;294
000564  f7fffffe          BL       ANO_DT_Send_Check
000568  2001              MOVS     r0,#1                 ;295
00056a  490f              LDR      r1,|L2.1448|
00056c  72c8              STRB     r0,[r1,#0xb]          ;295
                  |L2.1390|
00056e  78a0              LDRB     r0,[r4,#2]            ;297
000570  2814              CMP      r0,#0x14              ;297
000572  d103              BNE      |L2.1404|
000574  78a0              LDRB     r0,[r4,#2]            ;299
000576  4651              MOV      r1,r10                ;299
000578  f7fffffe          BL       ANO_DT_Send_Check
                  |L2.1404|
00057c  78a0              LDRB     r0,[r4,#2]            ;301
00057e  2815              CMP      r0,#0x15              ;301
000580  d103              BNE      |L2.1418|
000582  78a0              LDRB     r0,[r4,#2]            ;303
000584  4651              MOV      r1,r10                ;303
000586  f7fffffe          BL       ANO_DT_Send_Check
                  |L2.1418|
00058a  bf00              NOP      
00058c  e550              B        |L2.48|
;;;306    
                          ENDP

00058e  0000              DCW      0x0000
                  |L2.1424|
                          DCD      ultra_pid
                  |L2.1428|
                          DCD      0x47ae147b
                  |L2.1432|
                          DCD      0x3f847ae1
                  |L2.1436|
                          DCD      baro_pid
                  |L2.1440|
                          DCD      0xd2f1a9fc
                  |L2.1444|
                          DCD      0x3f50624d
                  |L2.1448|
                          DCD      flag
                  |L2.1452|
                          DCD      baro_wz_speed_pid

                          AREA ||i.ANO_DT_Send_Check||, CODE, READONLY, ALIGN=2

                  ANO_DT_Send_Check PROC
;;;173    
;;;174    static void ANO_DT_Send_Check(u8 head, u8 check_sum)
000000  b570              PUSH     {r4-r6,lr}
;;;175    {
000002  4604              MOV      r4,r0
000004  460d              MOV      r5,r1
;;;176    	data_to_send[0]=0xAA;
000006  20aa              MOVS     r0,#0xaa
000008  4914              LDR      r1,|L3.92|
00000a  7008              STRB     r0,[r1,#0]
;;;177    	data_to_send[1]=0xAA;
00000c  7048              STRB     r0,[r1,#1]
;;;178    	data_to_send[2]=0xEF;
00000e  20ef              MOVS     r0,#0xef
000010  7088              STRB     r0,[r1,#2]
;;;179    	data_to_send[3]=2;
000012  2002              MOVS     r0,#2
000014  70c8              STRB     r0,[r1,#3]
;;;180    	data_to_send[4]=head;
000016  4608              MOV      r0,r1
000018  7104              STRB     r4,[r0,#4]
;;;181    	data_to_send[5]=check_sum;
00001a  7145              STRB     r5,[r0,#5]
;;;182    		
;;;183    	u8 sum = 0;
00001c  2600              MOVS     r6,#0
;;;184    	for(u8 i=0;i<6;i++)
00001e  2000              MOVS     r0,#0
000020  e005              B        |L3.46|
                  |L3.34|
;;;185    		sum += data_to_send[i];
000022  490e              LDR      r1,|L3.92|
000024  5c09              LDRB     r1,[r1,r0]
000026  4431              ADD      r1,r1,r6
000028  b2ce              UXTB     r6,r1
00002a  1c41              ADDS     r1,r0,#1              ;184
00002c  b2c8              UXTB     r0,r1                 ;184
                  |L3.46|
00002e  2806              CMP      r0,#6                 ;184
000030  dbf7              BLT      |L3.34|
;;;186    	data_to_send[6]=sum;
000032  480a              LDR      r0,|L3.92|
000034  7186              STRB     r6,[r0,#6]
;;;187    	DMA_Cmd(DMA1_Channel4,DISABLE);//先停止其他DMA数据发送，避免混淆了check的重要帧
000036  2100              MOVS     r1,#0
000038  4809              LDR      r0,|L3.96|
00003a  f7fffffe          BL       DMA_Cmd
;;;188    	delay_ms(10);//延时一点，以确保上一帧数据已经发完，串口链路是空的
00003e  200a              MOVS     r0,#0xa
000040  f7fffffe          BL       delay_ms
;;;189    	Flag_Uart_Send=0;//置0以确保可以下次启动DMA
000044  2000              MOVS     r0,#0
000046  4907              LDR      r1,|L3.100|
000048  7008              STRB     r0,[r1,#0]
;;;190    	ANO_DT_Send_Data(data_to_send, 7);
00004a  2107              MOVS     r1,#7
00004c  4803              LDR      r0,|L3.92|
00004e  f7fffffe          BL       ANO_DT_Send_Data
;;;191    	delay_ms(5);//延时避免其他数据混入	
000052  2005              MOVS     r0,#5
000054  f7fffffe          BL       delay_ms
;;;192    }
000058  bd70              POP      {r4-r6,pc}
;;;193    
                          ENDP

00005a  0000              DCW      0x0000
                  |L3.92|
                          DCD      data_to_send
                  |L3.96|
                          DCD      0x40020044
                  |L3.100|
                          DCD      Flag_Uart_Send

                          AREA ||i.ANO_DT_Send_Data||, CODE, READONLY, ALIGN=2

                  ANO_DT_Send_Data PROC
;;;148    //移植时，用户应根据自身应用的情况，根据使用的通信方式，实现此函数
;;;149    void ANO_DT_Send_Data(u8 *dataToSend , u8 length)
000000  b570              PUSH     {r4-r6,lr}
;;;150    {
000002  4604              MOV      r4,r0
000004  460d              MOV      r5,r1
;;;151    
;;;152     uint8 static numi,numj;
;;;153    
;;;154     // temp=NRF24L01_Txframes(dataToSend,length);//使用NRF发送
;;;155        Usart1_Send(dataToSend ,length);
000006  4629              MOV      r1,r5
000008  4620              MOV      r0,r4
00000a  f7fffffe          BL       Usart1_Send
;;;156    		if(numi>=10)//	
00000e  480d              LDR      r0,|L4.68|
000010  7800              LDRB     r0,[r0,#0]  ; numi
000012  280a              CMP      r0,#0xa
000014  db10              BLT      |L4.56|
;;;157    		{
;;;158    				if(numj>=1)
000016  480c              LDR      r0,|L4.72|
000018  7800              LDRB     r0,[r0,#0]  ; numj
00001a  2801              CMP      r0,#1
00001c  db03              BLT      |L4.38|
;;;159    				{
;;;160    					//Dis_Float(3,80,3,0);//没啥，就是数字跳动用于显示正在通信而已
;;;161    					numj=0;
00001e  2000              MOVS     r0,#0
000020  4909              LDR      r1,|L4.72|
000022  7008              STRB     r0,[r1,#0]
000024  e004              B        |L4.48|
                  |L4.38|
;;;162    				}
;;;163    				else 
;;;164            {
;;;165    				  numj++;
000026  4808              LDR      r0,|L4.72|
000028  7800              LDRB     r0,[r0,#0]  ; numj
00002a  1c40              ADDS     r0,r0,#1
00002c  4906              LDR      r1,|L4.72|
00002e  7008              STRB     r0,[r1,#0]
                  |L4.48|
;;;166    					//Dis_Float(3,80,1,0);
;;;167    				}
;;;168    				numi=0;
000030  2000              MOVS     r0,#0
000032  4904              LDR      r1,|L4.68|
000034  7008              STRB     r0,[r1,#0]
000036  e004              B        |L4.66|
                  |L4.56|
;;;169    		}
;;;170    		else
;;;171    			numi++;
000038  4802              LDR      r0,|L4.68|
00003a  7800              LDRB     r0,[r0,#0]  ; numi
00003c  1c40              ADDS     r0,r0,#1
00003e  4901              LDR      r1,|L4.68|
000040  7008              STRB     r0,[r1,#0]
                  |L4.66|
;;;172    }
000042  bd70              POP      {r4-r6,pc}
;;;173    
                          ENDP

                  |L4.68|
                          DCD      numi
                  |L4.72|
                          DCD      numj

                          AREA ||i.ANO_DT_Send_MotoPWM||, CODE, READONLY, ALIGN=2

                  ANO_DT_Send_MotoPWM PROC
;;;517    }
;;;518    void ANO_DT_Send_MotoPWM(u16 m_1,u16 m_2,u16 m_3,u16 m_4,u16 m_5,u16 m_6,u16 m_7,u16 m_8)
000000  b57f              PUSH     {r0-r6,lr}
;;;519    {
;;;520    	u8 _cnt=0;
000002  2400              MOVS     r4,#0
;;;521    	
;;;522    	data_to_send[_cnt++]=0xAA;
000004  22aa              MOVS     r2,#0xaa
000006  4621              MOV      r1,r4
000008  1c64              ADDS     r4,r4,#1
00000a  4847              LDR      r0,|L5.296|
00000c  5442              STRB     r2,[r0,r1]
;;;523    	data_to_send[_cnt++]=0xAA;
00000e  4621              MOV      r1,r4
000010  1c64              ADDS     r4,r4,#1
000012  5442              STRB     r2,[r0,r1]
;;;524    	data_to_send[_cnt++]=0x06;
000014  2206              MOVS     r2,#6
000016  4621              MOV      r1,r4
000018  1c64              ADDS     r4,r4,#1
00001a  5442              STRB     r2,[r0,r1]
;;;525    	data_to_send[_cnt++]=0;
00001c  2200              MOVS     r2,#0
00001e  4621              MOV      r1,r4
000020  1c64              ADDS     r4,r4,#1
000022  5442              STRB     r2,[r0,r1]
;;;526    	
;;;527    	data_to_send[_cnt++]=BYTE1(m_1);
000024  f89d2001          LDRB     r2,[sp,#1]
000028  4621              MOV      r1,r4
00002a  1c64              ADDS     r4,r4,#1
00002c  5442              STRB     r2,[r0,r1]
;;;528    	data_to_send[_cnt++]=BYTE0(m_1);
00002e  f89d2000          LDRB     r2,[sp,#0]
000032  4621              MOV      r1,r4
000034  1c64              ADDS     r4,r4,#1
000036  5442              STRB     r2,[r0,r1]
;;;529    	data_to_send[_cnt++]=BYTE1(m_2);
000038  f89d2005          LDRB     r2,[sp,#5]
00003c  4621              MOV      r1,r4
00003e  1c64              ADDS     r4,r4,#1
000040  5442              STRB     r2,[r0,r1]
;;;530    	data_to_send[_cnt++]=BYTE0(m_2);
000042  f89d2004          LDRB     r2,[sp,#4]
000046  4620              MOV      r0,r4
000048  1c61              ADDS     r1,r4,#1
00004a  b2cc              UXTB     r4,r1
00004c  4936              LDR      r1,|L5.296|
00004e  540a              STRB     r2,[r1,r0]
;;;531    	data_to_send[_cnt++]=BYTE1(m_3);
000050  f89d2009          LDRB     r2,[sp,#9]
000054  4620              MOV      r0,r4
000056  1c61              ADDS     r1,r4,#1
000058  b2cc              UXTB     r4,r1
00005a  4933              LDR      r1,|L5.296|
00005c  540a              STRB     r2,[r1,r0]
;;;532    	data_to_send[_cnt++]=BYTE0(m_3);
00005e  f89d2008          LDRB     r2,[sp,#8]
000062  4620              MOV      r0,r4
000064  1c61              ADDS     r1,r4,#1
000066  b2cc              UXTB     r4,r1
000068  492f              LDR      r1,|L5.296|
00006a  540a              STRB     r2,[r1,r0]
;;;533    	data_to_send[_cnt++]=BYTE1(m_4);
00006c  f89d200d          LDRB     r2,[sp,#0xd]
000070  4620              MOV      r0,r4
000072  1c61              ADDS     r1,r4,#1
000074  b2cc              UXTB     r4,r1
000076  492c              LDR      r1,|L5.296|
000078  540a              STRB     r2,[r1,r0]
;;;534    	data_to_send[_cnt++]=BYTE0(m_4);
00007a  f89d200c          LDRB     r2,[sp,#0xc]
00007e  4621              MOV      r1,r4
000080  1c60              ADDS     r0,r4,#1
000082  b2c4              UXTB     r4,r0
000084  4828              LDR      r0,|L5.296|
000086  5442              STRB     r2,[r0,r1]
;;;535    	data_to_send[_cnt++]=BYTE1(m_5);
000088  f89d2021          LDRB     r2,[sp,#0x21]
00008c  4620              MOV      r0,r4
00008e  1c61              ADDS     r1,r4,#1
000090  b2cc              UXTB     r4,r1
000092  4925              LDR      r1,|L5.296|
000094  540a              STRB     r2,[r1,r0]
;;;536    	data_to_send[_cnt++]=BYTE0(m_5);
000096  f89d2020          LDRB     r2,[sp,#0x20]
00009a  4620              MOV      r0,r4
00009c  1c61              ADDS     r1,r4,#1
00009e  b2cc              UXTB     r4,r1
0000a0  4921              LDR      r1,|L5.296|
0000a2  540a              STRB     r2,[r1,r0]
;;;537    	data_to_send[_cnt++]=BYTE1(m_6);
0000a4  f89d2025          LDRB     r2,[sp,#0x25]
0000a8  4620              MOV      r0,r4
0000aa  1c61              ADDS     r1,r4,#1
0000ac  b2cc              UXTB     r4,r1
0000ae  491e              LDR      r1,|L5.296|
0000b0  540a              STRB     r2,[r1,r0]
;;;538    	data_to_send[_cnt++]=BYTE0(m_6);
0000b2  f89d2024          LDRB     r2,[sp,#0x24]
0000b6  4620              MOV      r0,r4
0000b8  1c61              ADDS     r1,r4,#1
0000ba  b2cc              UXTB     r4,r1
0000bc  491a              LDR      r1,|L5.296|
0000be  540a              STRB     r2,[r1,r0]
;;;539    	data_to_send[_cnt++]=BYTE1(m_7);
0000c0  f89d2029          LDRB     r2,[sp,#0x29]
0000c4  4620              MOV      r0,r4
0000c6  1c61              ADDS     r1,r4,#1
0000c8  b2cc              UXTB     r4,r1
0000ca  4917              LDR      r1,|L5.296|
0000cc  540a              STRB     r2,[r1,r0]
;;;540    	data_to_send[_cnt++]=BYTE0(m_7);
0000ce  f89d2028          LDRB     r2,[sp,#0x28]
0000d2  4620              MOV      r0,r4
0000d4  1c61              ADDS     r1,r4,#1
0000d6  b2cc              UXTB     r4,r1
0000d8  4913              LDR      r1,|L5.296|
0000da  540a              STRB     r2,[r1,r0]
;;;541    	data_to_send[_cnt++]=BYTE1(m_8);
0000dc  f89d202d          LDRB     r2,[sp,#0x2d]
0000e0  4620              MOV      r0,r4
0000e2  1c61              ADDS     r1,r4,#1
0000e4  b2cc              UXTB     r4,r1
0000e6  4910              LDR      r1,|L5.296|
0000e8  540a              STRB     r2,[r1,r0]
;;;542    	data_to_send[_cnt++]=BYTE0(m_8);
0000ea  f89d202c          LDRB     r2,[sp,#0x2c]
0000ee  4620              MOV      r0,r4
0000f0  1c61              ADDS     r1,r4,#1
0000f2  b2cc              UXTB     r4,r1
0000f4  490c              LDR      r1,|L5.296|
0000f6  540a              STRB     r2,[r1,r0]
;;;543    	
;;;544    	data_to_send[3] = _cnt-4;
0000f8  1f20              SUBS     r0,r4,#4
0000fa  70c8              STRB     r0,[r1,#3]
;;;545    	
;;;546    	u8 sum = 0;
0000fc  2500              MOVS     r5,#0
;;;547    	for(u8 i=0;i<_cnt;i++)
0000fe  2000              MOVS     r0,#0
000100  e005              B        |L5.270|
                  |L5.258|
;;;548    		sum += data_to_send[i];
000102  4909              LDR      r1,|L5.296|
000104  5c09              LDRB     r1,[r1,r0]
000106  4429              ADD      r1,r1,r5
000108  b2cd              UXTB     r5,r1
00010a  1c41              ADDS     r1,r0,#1              ;547
00010c  b2c8              UXTB     r0,r1                 ;547
                  |L5.270|
00010e  42a0              CMP      r0,r4                 ;547
000110  dbf7              BLT      |L5.258|
;;;549    	
;;;550    	data_to_send[_cnt++]=sum;
000112  4620              MOV      r0,r4
000114  1c61              ADDS     r1,r4,#1
000116  b2cc              UXTB     r4,r1
000118  4903              LDR      r1,|L5.296|
00011a  540d              STRB     r5,[r1,r0]
;;;551    	
;;;552    	ANO_DT_Send_Data(data_to_send, _cnt);
00011c  4621              MOV      r1,r4
00011e  4802              LDR      r0,|L5.296|
000120  f7fffffe          BL       ANO_DT_Send_Data
;;;553    }
000124  bd7f              POP      {r0-r6,pc}
;;;554    void ANO_DT_Send_PID(u8 group,float p1_p,float p1_i,float p1_d,float p2_p,float p2_i,float p2_d,float p3_p,float p3_i,float p3_d)
                          ENDP

000126  0000              DCW      0x0000
                  |L5.296|
                          DCD      data_to_send

                          AREA ||i.ANO_DT_Send_PID||, CODE, READONLY, ALIGN=2

                  ANO_DT_Send_PID PROC
;;;553    }
;;;554    void ANO_DT_Send_PID(u8 group,float p1_p,float p1_i,float p1_d,float p2_p,float p2_i,float p2_d,float p3_p,float p3_i,float p3_d)
000000  e92d4ff8          PUSH     {r3-r11,lr}
;;;555    {
000004  4605              MOV      r5,r0
000006  460e              MOV      r6,r1
000008  4617              MOV      r7,r2
00000a  4698              MOV      r8,r3
00000c  e9ddab0a          LDRD     r10,r11,[sp,#0x28]
;;;556    	u8 _cnt=0;
000010  2400              MOVS     r4,#0
;;;557    	vs16 _temp;
;;;558    	
;;;559    	data_to_send[_cnt++]=0xAA;
000012  22aa              MOVS     r2,#0xaa
000014  4621              MOV      r1,r4
000016  1c64              ADDS     r4,r4,#1
000018  4868              LDR      r0,|L6.444|
00001a  5442              STRB     r2,[r0,r1]
;;;560    	data_to_send[_cnt++]=0xAA;
00001c  4621              MOV      r1,r4
00001e  1c64              ADDS     r4,r4,#1
000020  5442              STRB     r2,[r0,r1]
;;;561    	data_to_send[_cnt++]=0x10+group-1;
000022  f105000f          ADD      r0,r5,#0xf
000026  b2c2              UXTB     r2,r0
000028  4621              MOV      r1,r4
00002a  1c64              ADDS     r4,r4,#1
00002c  4863              LDR      r0,|L6.444|
00002e  5442              STRB     r2,[r0,r1]
;;;562    	data_to_send[_cnt++]=0;
000030  2200              MOVS     r2,#0
000032  4621              MOV      r1,r4
000034  1c64              ADDS     r4,r4,#1
000036  5442              STRB     r2,[r0,r1]
;;;563    	
;;;564    	
;;;565    	_temp = p1_p;
000038  4630              MOV      r0,r6
00003a  f7fffffe          BL       __aeabi_f2iz
00003e  b200              SXTH     r0,r0
000040  9000              STR      r0,[sp,#0]
;;;566    	data_to_send[_cnt++]=BYTE1(_temp);
000042  f89d2001          LDRB     r2,[sp,#1]
000046  4621              MOV      r1,r4
000048  1c64              ADDS     r4,r4,#1
00004a  485c              LDR      r0,|L6.444|
00004c  5442              STRB     r2,[r0,r1]
;;;567    	data_to_send[_cnt++]=BYTE0(_temp);
00004e  f89d2000          LDRB     r2,[sp,#0]
000052  4621              MOV      r1,r4
000054  1c64              ADDS     r4,r4,#1
000056  5442              STRB     r2,[r0,r1]
;;;568    	_temp = p1_i ;
000058  4638              MOV      r0,r7
00005a  f7fffffe          BL       __aeabi_f2iz
00005e  b200              SXTH     r0,r0
000060  9000              STR      r0,[sp,#0]
;;;569    	data_to_send[_cnt++]=BYTE1(_temp);
000062  f89d2001          LDRB     r2,[sp,#1]
000066  4621              MOV      r1,r4
000068  1c64              ADDS     r4,r4,#1
00006a  4854              LDR      r0,|L6.444|
00006c  5442              STRB     r2,[r0,r1]
;;;570    	data_to_send[_cnt++]=BYTE0(_temp);
00006e  f89d2000          LDRB     r2,[sp,#0]
000072  4620              MOV      r0,r4
000074  1c61              ADDS     r1,r4,#1
000076  b2cc              UXTB     r4,r1
000078  4950              LDR      r1,|L6.444|
00007a  540a              STRB     r2,[r1,r0]
;;;571    	_temp = p1_d ;
00007c  4640              MOV      r0,r8
00007e  f7fffffe          BL       __aeabi_f2iz
000082  b200              SXTH     r0,r0
000084  9000              STR      r0,[sp,#0]
;;;572    	data_to_send[_cnt++]=BYTE1(_temp);
000086  f89d2001          LDRB     r2,[sp,#1]
00008a  4620              MOV      r0,r4
00008c  1c61              ADDS     r1,r4,#1
00008e  b2cc              UXTB     r4,r1
000090  494a              LDR      r1,|L6.444|
000092  540a              STRB     r2,[r1,r0]
;;;573    	data_to_send[_cnt++]=BYTE0(_temp);
000094  f89d2000          LDRB     r2,[sp,#0]
000098  4620              MOV      r0,r4
00009a  1c61              ADDS     r1,r4,#1
00009c  b2cc              UXTB     r4,r1
00009e  4947              LDR      r1,|L6.444|
0000a0  540a              STRB     r2,[r1,r0]
;;;574    	_temp = p2_p ;
0000a2  4650              MOV      r0,r10
0000a4  f7fffffe          BL       __aeabi_f2iz
0000a8  b200              SXTH     r0,r0
0000aa  9000              STR      r0,[sp,#0]
;;;575    	data_to_send[_cnt++]=BYTE1(_temp);
0000ac  f89d2001          LDRB     r2,[sp,#1]
0000b0  4620              MOV      r0,r4
0000b2  1c61              ADDS     r1,r4,#1
0000b4  b2cc              UXTB     r4,r1
0000b6  4941              LDR      r1,|L6.444|
0000b8  540a              STRB     r2,[r1,r0]
;;;576    	data_to_send[_cnt++]=BYTE0(_temp);
0000ba  f89d2000          LDRB     r2,[sp,#0]
0000be  4620              MOV      r0,r4
0000c0  1c61              ADDS     r1,r4,#1
0000c2  b2cc              UXTB     r4,r1
0000c4  493d              LDR      r1,|L6.444|
0000c6  540a              STRB     r2,[r1,r0]
;;;577    	_temp = p2_i ;
0000c8  4658              MOV      r0,r11
0000ca  f7fffffe          BL       __aeabi_f2iz
0000ce  b200              SXTH     r0,r0
0000d0  9000              STR      r0,[sp,#0]
;;;578    	data_to_send[_cnt++]=BYTE1(_temp);
0000d2  f89d2001          LDRB     r2,[sp,#1]
0000d6  4620              MOV      r0,r4
0000d8  1c61              ADDS     r1,r4,#1
0000da  b2cc              UXTB     r4,r1
0000dc  4937              LDR      r1,|L6.444|
0000de  540a              STRB     r2,[r1,r0]
;;;579    	data_to_send[_cnt++]=BYTE0(_temp);
0000e0  f89d2000          LDRB     r2,[sp,#0]
0000e4  4620              MOV      r0,r4
0000e6  1c61              ADDS     r1,r4,#1
0000e8  b2cc              UXTB     r4,r1
0000ea  4934              LDR      r1,|L6.444|
0000ec  540a              STRB     r2,[r1,r0]
;;;580    	_temp = p2_d;
0000ee  980c              LDR      r0,[sp,#0x30]
0000f0  f7fffffe          BL       __aeabi_f2iz
0000f4  b200              SXTH     r0,r0
0000f6  9000              STR      r0,[sp,#0]
;;;581    	data_to_send[_cnt++]=BYTE1(_temp);
0000f8  f89d2001          LDRB     r2,[sp,#1]
0000fc  4620              MOV      r0,r4
0000fe  1c61              ADDS     r1,r4,#1
000100  b2cc              UXTB     r4,r1
000102  492e              LDR      r1,|L6.444|
000104  540a              STRB     r2,[r1,r0]
;;;582    	data_to_send[_cnt++]=BYTE0(_temp);
000106  f89d2000          LDRB     r2,[sp,#0]
00010a  4621              MOV      r1,r4
00010c  1c60              ADDS     r0,r4,#1
00010e  b2c4              UXTB     r4,r0
000110  482a              LDR      r0,|L6.444|
000112  5442              STRB     r2,[r0,r1]
;;;583    	_temp = p3_p ;
000114  980d              LDR      r0,[sp,#0x34]
000116  f7fffffe          BL       __aeabi_f2iz
00011a  b200              SXTH     r0,r0
00011c  9000              STR      r0,[sp,#0]
;;;584    	data_to_send[_cnt++]=BYTE1(_temp);
00011e  f89d2001          LDRB     r2,[sp,#1]
000122  4620              MOV      r0,r4
000124  1c61              ADDS     r1,r4,#1
000126  b2cc              UXTB     r4,r1
000128  4924              LDR      r1,|L6.444|
00012a  540a              STRB     r2,[r1,r0]
;;;585    	data_to_send[_cnt++]=BYTE0(_temp);
00012c  f89d2000          LDRB     r2,[sp,#0]
000130  4620              MOV      r0,r4
000132  1c61              ADDS     r1,r4,#1
000134  b2cc              UXTB     r4,r1
000136  4921              LDR      r1,|L6.444|
000138  540a              STRB     r2,[r1,r0]
;;;586    	_temp = p3_i ;
00013a  980e              LDR      r0,[sp,#0x38]
00013c  f7fffffe          BL       __aeabi_f2iz
000140  b200              SXTH     r0,r0
000142  9000              STR      r0,[sp,#0]
;;;587    	data_to_send[_cnt++]=BYTE1(_temp);
000144  f89d2001          LDRB     r2,[sp,#1]
000148  4620              MOV      r0,r4
00014a  1c61              ADDS     r1,r4,#1
00014c  b2cc              UXTB     r4,r1
00014e  491b              LDR      r1,|L6.444|
000150  540a              STRB     r2,[r1,r0]
;;;588    	data_to_send[_cnt++]=BYTE0(_temp);
000152  f89d2000          LDRB     r2,[sp,#0]
000156  4620              MOV      r0,r4
000158  1c61              ADDS     r1,r4,#1
00015a  b2cc              UXTB     r4,r1
00015c  4917              LDR      r1,|L6.444|
00015e  540a              STRB     r2,[r1,r0]
;;;589    	_temp = p3_d;
000160  980f              LDR      r0,[sp,#0x3c]
000162  f7fffffe          BL       __aeabi_f2iz
000166  b200              SXTH     r0,r0
000168  9000              STR      r0,[sp,#0]
;;;590    	data_to_send[_cnt++]=BYTE1(_temp);
00016a  f89d2001          LDRB     r2,[sp,#1]
00016e  4620              MOV      r0,r4
000170  1c61              ADDS     r1,r4,#1
000172  b2cc              UXTB     r4,r1
000174  4911              LDR      r1,|L6.444|
000176  540a              STRB     r2,[r1,r0]
;;;591    	data_to_send[_cnt++]=BYTE0(_temp);
000178  f89d2000          LDRB     r2,[sp,#0]
00017c  4620              MOV      r0,r4
00017e  1c61              ADDS     r1,r4,#1
000180  b2cc              UXTB     r4,r1
000182  490e              LDR      r1,|L6.444|
000184  540a              STRB     r2,[r1,r0]
;;;592    	
;;;593    	data_to_send[3] = _cnt-4;
000186  1f20              SUBS     r0,r4,#4
000188  70c8              STRB     r0,[r1,#3]
;;;594    	
;;;595    	u8 sum = 0;
00018a  f04f0900          MOV      r9,#0
;;;596    	for(u8 i=0;i<_cnt;i++)
00018e  2000              MOVS     r0,#0
000190  e006              B        |L6.416|
                  |L6.402|
;;;597    		sum += data_to_send[i];
000192  490a              LDR      r1,|L6.444|
000194  5c09              LDRB     r1,[r1,r0]
000196  4449              ADD      r1,r1,r9
000198  f00109ff          AND      r9,r1,#0xff
00019c  1c41              ADDS     r1,r0,#1              ;596
00019e  b2c8              UXTB     r0,r1                 ;596
                  |L6.416|
0001a0  42a0              CMP      r0,r4                 ;596
0001a2  dbf6              BLT      |L6.402|
;;;598    	
;;;599    	data_to_send[_cnt++]=sum;
0001a4  4620              MOV      r0,r4
0001a6  1c61              ADDS     r1,r4,#1
0001a8  b2cc              UXTB     r4,r1
0001aa  4904              LDR      r1,|L6.444|
0001ac  f8019000          STRB     r9,[r1,r0]
;;;600    
;;;601    	ANO_DT_Send_Data(data_to_send, _cnt);
0001b0  4621              MOV      r1,r4
0001b2  4802              LDR      r0,|L6.444|
0001b4  f7fffffe          BL       ANO_DT_Send_Data
;;;602    }
0001b8  e8bd8ff8          POP      {r3-r11,pc}
;;;603    
                          ENDP

                  |L6.444|
                          DCD      data_to_send

                          AREA ||i.ANO_DT_Send_Power||, CODE, READONLY, ALIGN=2

                  ANO_DT_Send_Power PROC
;;;490    }
;;;491    void ANO_DT_Send_Power(u16 votage, u16 current)
000000  b5f8              PUSH     {r3-r7,lr}
;;;492    {
000002  4605              MOV      r5,r0
000004  460e              MOV      r6,r1
;;;493    	u8 _cnt=0;
000006  2400              MOVS     r4,#0
;;;494    	u16 temp;
;;;495    	
;;;496    	data_to_send[_cnt++]=0xAA;
000008  22aa              MOVS     r2,#0xaa
00000a  4621              MOV      r1,r4
00000c  1c64              ADDS     r4,r4,#1
00000e  481e              LDR      r0,|L7.136|
000010  5442              STRB     r2,[r0,r1]
;;;497    	data_to_send[_cnt++]=0xAA;
000012  4621              MOV      r1,r4
000014  1c64              ADDS     r4,r4,#1
000016  5442              STRB     r2,[r0,r1]
;;;498    	data_to_send[_cnt++]=0x05;
000018  2205              MOVS     r2,#5
00001a  4621              MOV      r1,r4
00001c  1c64              ADDS     r4,r4,#1
00001e  5442              STRB     r2,[r0,r1]
;;;499    	data_to_send[_cnt++]=0;
000020  2200              MOVS     r2,#0
000022  4621              MOV      r1,r4
000024  1c64              ADDS     r4,r4,#1
000026  5442              STRB     r2,[r0,r1]
;;;500    	
;;;501    	temp = votage;
000028  9500              STR      r5,[sp,#0]
;;;502    	data_to_send[_cnt++]=BYTE1(temp);
00002a  f89d2001          LDRB     r2,[sp,#1]
00002e  4621              MOV      r1,r4
000030  1c64              ADDS     r4,r4,#1
000032  5442              STRB     r2,[r0,r1]
;;;503    	data_to_send[_cnt++]=BYTE0(temp);
000034  f89d2000          LDRB     r2,[sp,#0]
000038  4621              MOV      r1,r4
00003a  1c64              ADDS     r4,r4,#1
00003c  5442              STRB     r2,[r0,r1]
;;;504    	temp = current;
00003e  9600              STR      r6,[sp,#0]
;;;505    	data_to_send[_cnt++]=BYTE1(temp);
000040  f89d2001          LDRB     r2,[sp,#1]
000044  4621              MOV      r1,r4
000046  1c64              ADDS     r4,r4,#1
000048  5442              STRB     r2,[r0,r1]
;;;506    	data_to_send[_cnt++]=BYTE0(temp);
00004a  f89d2000          LDRB     r2,[sp,#0]
00004e  4621              MOV      r1,r4
000050  1c60              ADDS     r0,r4,#1
000052  b2c4              UXTB     r4,r0
000054  480c              LDR      r0,|L7.136|
000056  5442              STRB     r2,[r0,r1]
;;;507    	
;;;508    	data_to_send[3] = _cnt-4;
000058  1f20              SUBS     r0,r4,#4
00005a  490b              LDR      r1,|L7.136|
00005c  70c8              STRB     r0,[r1,#3]
;;;509    	
;;;510    	u8 sum = 0;
00005e  2700              MOVS     r7,#0
;;;511    	for(u8 i=0;i<_cnt;i++)
000060  2000              MOVS     r0,#0
000062  e005              B        |L7.112|
                  |L7.100|
;;;512    		sum += data_to_send[i];
000064  4908              LDR      r1,|L7.136|
000066  5c09              LDRB     r1,[r1,r0]
000068  4439              ADD      r1,r1,r7
00006a  b2cf              UXTB     r7,r1
00006c  1c41              ADDS     r1,r0,#1              ;511
00006e  b2c8              UXTB     r0,r1                 ;511
                  |L7.112|
000070  42a0              CMP      r0,r4                 ;511
000072  dbf7              BLT      |L7.100|
;;;513    	
;;;514    	data_to_send[_cnt++]=sum;
000074  4620              MOV      r0,r4
000076  1c61              ADDS     r1,r4,#1
000078  b2cc              UXTB     r4,r1
00007a  4903              LDR      r1,|L7.136|
00007c  540f              STRB     r7,[r1,r0]
;;;515    	
;;;516    	ANO_DT_Send_Data(data_to_send, _cnt);
00007e  4621              MOV      r1,r4
000080  4801              LDR      r0,|L7.136|
000082  f7fffffe          BL       ANO_DT_Send_Data
;;;517    }
000086  bdf8              POP      {r3-r7,pc}
;;;518    void ANO_DT_Send_MotoPWM(u16 m_1,u16 m_2,u16 m_3,u16 m_4,u16 m_5,u16 m_6,u16 m_7,u16 m_8)
                          ENDP

                  |L7.136|
                          DCD      data_to_send

                          AREA ||i.ANO_DT_Send_RCData||, CODE, READONLY, ALIGN=2

                  ANO_DT_Send_RCData PROC
;;;451    
;;;452    void ANO_DT_Send_RCData(u16 thr,u16 yaw,u16 rol,u16 pit,u16 aux1,u16 aux2,u16 aux3,u16 aux4,u16 aux5,u16 aux6)
000000  b57f              PUSH     {r0-r6,lr}
;;;453    {
;;;454    	u8 _cnt=0;
000002  2400              MOVS     r4,#0
;;;455    	
;;;456    	data_to_send[_cnt++]=0xAA;
000004  22aa              MOVS     r2,#0xaa
000006  4621              MOV      r1,r4
000008  1c64              ADDS     r4,r4,#1
00000a  4855              LDR      r0,|L8.352|
00000c  5442              STRB     r2,[r0,r1]
;;;457    	data_to_send[_cnt++]=0xAA;
00000e  4621              MOV      r1,r4
000010  1c64              ADDS     r4,r4,#1
000012  5442              STRB     r2,[r0,r1]
;;;458    	data_to_send[_cnt++]=0x03;
000014  2203              MOVS     r2,#3
000016  4621              MOV      r1,r4
000018  1c64              ADDS     r4,r4,#1
00001a  5442              STRB     r2,[r0,r1]
;;;459    	data_to_send[_cnt++]=0;
00001c  2200              MOVS     r2,#0
00001e  4621              MOV      r1,r4
000020  1c64              ADDS     r4,r4,#1
000022  5442              STRB     r2,[r0,r1]
;;;460    	data_to_send[_cnt++]=BYTE1(thr);
000024  f89d2001          LDRB     r2,[sp,#1]
000028  4621              MOV      r1,r4
00002a  1c64              ADDS     r4,r4,#1
00002c  5442              STRB     r2,[r0,r1]
;;;461    	data_to_send[_cnt++]=BYTE0(thr);
00002e  f89d2000          LDRB     r2,[sp,#0]
000032  4621              MOV      r1,r4
000034  1c64              ADDS     r4,r4,#1
000036  5442              STRB     r2,[r0,r1]
;;;462    	data_to_send[_cnt++]=BYTE1(yaw);
000038  f89d2005          LDRB     r2,[sp,#5]
00003c  4621              MOV      r1,r4
00003e  1c64              ADDS     r4,r4,#1
000040  5442              STRB     r2,[r0,r1]
;;;463    	data_to_send[_cnt++]=BYTE0(yaw);
000042  f89d2004          LDRB     r2,[sp,#4]
000046  4620              MOV      r0,r4
000048  1c61              ADDS     r1,r4,#1
00004a  b2cc              UXTB     r4,r1
00004c  4944              LDR      r1,|L8.352|
00004e  540a              STRB     r2,[r1,r0]
;;;464    	data_to_send[_cnt++]=BYTE1(rol);
000050  f89d2009          LDRB     r2,[sp,#9]
000054  4620              MOV      r0,r4
000056  1c61              ADDS     r1,r4,#1
000058  b2cc              UXTB     r4,r1
00005a  4941              LDR      r1,|L8.352|
00005c  540a              STRB     r2,[r1,r0]
;;;465    	data_to_send[_cnt++]=BYTE0(rol);
00005e  f89d2008          LDRB     r2,[sp,#8]
000062  4620              MOV      r0,r4
000064  1c61              ADDS     r1,r4,#1
000066  b2cc              UXTB     r4,r1
000068  493d              LDR      r1,|L8.352|
00006a  540a              STRB     r2,[r1,r0]
;;;466    	data_to_send[_cnt++]=BYTE1(pit);
00006c  f89d200d          LDRB     r2,[sp,#0xd]
000070  4620              MOV      r0,r4
000072  1c61              ADDS     r1,r4,#1
000074  b2cc              UXTB     r4,r1
000076  493a              LDR      r1,|L8.352|
000078  540a              STRB     r2,[r1,r0]
;;;467    	data_to_send[_cnt++]=BYTE0(pit);
00007a  f89d200c          LDRB     r2,[sp,#0xc]
00007e  4620              MOV      r0,r4
000080  1c61              ADDS     r1,r4,#1
000082  b2cc              UXTB     r4,r1
000084  4936              LDR      r1,|L8.352|
000086  540a              STRB     r2,[r1,r0]
;;;468    	data_to_send[_cnt++]=BYTE1(aux1);
000088  f89d2021          LDRB     r2,[sp,#0x21]
00008c  4620              MOV      r0,r4
00008e  1c61              ADDS     r1,r4,#1
000090  b2cc              UXTB     r4,r1
000092  4933              LDR      r1,|L8.352|
000094  540a              STRB     r2,[r1,r0]
;;;469    	data_to_send[_cnt++]=BYTE0(aux1);
000096  f89d2020          LDRB     r2,[sp,#0x20]
00009a  4621              MOV      r1,r4
00009c  1c60              ADDS     r0,r4,#1
00009e  b2c4              UXTB     r4,r0
0000a0  482f              LDR      r0,|L8.352|
0000a2  5442              STRB     r2,[r0,r1]
;;;470    	data_to_send[_cnt++]=BYTE1(aux2);
0000a4  f89d2025          LDRB     r2,[sp,#0x25]
0000a8  4620              MOV      r0,r4
0000aa  1c61              ADDS     r1,r4,#1
0000ac  b2cc              UXTB     r4,r1
0000ae  492c              LDR      r1,|L8.352|
0000b0  540a              STRB     r2,[r1,r0]
;;;471    	data_to_send[_cnt++]=BYTE0(aux2);
0000b2  f89d2024          LDRB     r2,[sp,#0x24]
0000b6  4620              MOV      r0,r4
0000b8  1c61              ADDS     r1,r4,#1
0000ba  b2cc              UXTB     r4,r1
0000bc  4928              LDR      r1,|L8.352|
0000be  540a              STRB     r2,[r1,r0]
;;;472    	data_to_send[_cnt++]=BYTE1(aux3);
0000c0  f89d2029          LDRB     r2,[sp,#0x29]
0000c4  4620              MOV      r0,r4
0000c6  1c61              ADDS     r1,r4,#1
0000c8  b2cc              UXTB     r4,r1
0000ca  4925              LDR      r1,|L8.352|
0000cc  540a              STRB     r2,[r1,r0]
;;;473    	data_to_send[_cnt++]=BYTE0(aux3);
0000ce  f89d2028          LDRB     r2,[sp,#0x28]
0000d2  4620              MOV      r0,r4
0000d4  1c61              ADDS     r1,r4,#1
0000d6  b2cc              UXTB     r4,r1
0000d8  4921              LDR      r1,|L8.352|
0000da  540a              STRB     r2,[r1,r0]
;;;474    	data_to_send[_cnt++]=BYTE1(aux4);
0000dc  f89d202d          LDRB     r2,[sp,#0x2d]
0000e0  4620              MOV      r0,r4
0000e2  1c61              ADDS     r1,r4,#1
0000e4  b2cc              UXTB     r4,r1
0000e6  491e              LDR      r1,|L8.352|
0000e8  540a              STRB     r2,[r1,r0]
;;;475    	data_to_send[_cnt++]=BYTE0(aux4);
0000ea  f89d202c          LDRB     r2,[sp,#0x2c]
0000ee  4620              MOV      r0,r4
0000f0  1c61              ADDS     r1,r4,#1
0000f2  b2cc              UXTB     r4,r1
0000f4  491a              LDR      r1,|L8.352|
0000f6  540a              STRB     r2,[r1,r0]
;;;476    	data_to_send[_cnt++]=BYTE1(aux5);
0000f8  f89d2031          LDRB     r2,[sp,#0x31]
0000fc  4620              MOV      r0,r4
0000fe  1c61              ADDS     r1,r4,#1
000100  b2cc              UXTB     r4,r1
000102  4917              LDR      r1,|L8.352|
000104  540a              STRB     r2,[r1,r0]
;;;477    	data_to_send[_cnt++]=BYTE0(aux5);
000106  f89d2030          LDRB     r2,[sp,#0x30]
00010a  4620              MOV      r0,r4
00010c  1c61              ADDS     r1,r4,#1
00010e  b2cc              UXTB     r4,r1
000110  4913              LDR      r1,|L8.352|
000112  540a              STRB     r2,[r1,r0]
;;;478    	data_to_send[_cnt++]=BYTE1(aux6);
000114  f89d2035          LDRB     r2,[sp,#0x35]
000118  4620              MOV      r0,r4
00011a  1c61              ADDS     r1,r4,#1
00011c  b2cc              UXTB     r4,r1
00011e  4910              LDR      r1,|L8.352|
000120  540a              STRB     r2,[r1,r0]
;;;479    	data_to_send[_cnt++]=BYTE0(aux6);
000122  f89d2034          LDRB     r2,[sp,#0x34]
000126  4620              MOV      r0,r4
000128  1c61              ADDS     r1,r4,#1
00012a  b2cc              UXTB     r4,r1
00012c  490c              LDR      r1,|L8.352|
00012e  540a              STRB     r2,[r1,r0]
;;;480    
;;;481    	data_to_send[3] = _cnt-4;
000130  1f20              SUBS     r0,r4,#4
000132  70c8              STRB     r0,[r1,#3]
;;;482    	
;;;483    	u8 sum = 0;
000134  2500              MOVS     r5,#0
;;;484    	for(u8 i=0;i<_cnt;i++)
000136  2000              MOVS     r0,#0
000138  e005              B        |L8.326|
                  |L8.314|
;;;485    		sum += data_to_send[i];
00013a  4909              LDR      r1,|L8.352|
00013c  5c09              LDRB     r1,[r1,r0]
00013e  4429              ADD      r1,r1,r5
000140  b2cd              UXTB     r5,r1
000142  1c41              ADDS     r1,r0,#1              ;484
000144  b2c8              UXTB     r0,r1                 ;484
                  |L8.326|
000146  42a0              CMP      r0,r4                 ;484
000148  dbf7              BLT      |L8.314|
;;;486    	
;;;487    	data_to_send[_cnt++]=sum;
00014a  4620              MOV      r0,r4
00014c  1c61              ADDS     r1,r4,#1
00014e  b2cc              UXTB     r4,r1
000150  4903              LDR      r1,|L8.352|
000152  540d              STRB     r5,[r1,r0]
;;;488    	
;;;489    	ANO_DT_Send_Data(data_to_send, _cnt);
000154  4621              MOV      r1,r4
000156  4802              LDR      r0,|L8.352|
000158  f7fffffe          BL       ANO_DT_Send_Data
;;;490    }
00015c  bd7f              POP      {r0-r6,pc}
;;;491    void ANO_DT_Send_Power(u16 votage, u16 current)
                          ENDP

00015e  0000              DCW      0x0000
                  |L8.352|
                          DCD      data_to_send

                          AREA ||i.ANO_DT_Send_Senser||, CODE, READONLY, ALIGN=2

                  ANO_DT_Send_Senser PROC
;;;372    }
;;;373    void ANO_DT_Send_Senser(s16 a_x,s16 a_y,s16 a_z,s16 g_x,s16 g_y,s16 g_z,s16 m_x,s16 m_y,s16 m_z,s32 bar)
000000  e92d4ff8          PUSH     {r3-r11,lr}
;;;374    {
000004  4605              MOV      r5,r0
000006  460e              MOV      r6,r1
000008  4617              MOV      r7,r2
00000a  4698              MOV      r8,r3
00000c  e9ddab0a          LDRD     r10,r11,[sp,#0x28]
;;;375    	u8 _cnt=0;
000010  2400              MOVS     r4,#0
;;;376    	vs16 _temp;
;;;377    	
;;;378    	data_to_send[_cnt++]=0xAA;
000012  22aa              MOVS     r2,#0xaa
000014  4621              MOV      r1,r4
000016  1c64              ADDS     r4,r4,#1
000018  4857              LDR      r0,|L9.376|
00001a  5442              STRB     r2,[r0,r1]
;;;379    	data_to_send[_cnt++]=0xAA;
00001c  4621              MOV      r1,r4
00001e  1c64              ADDS     r4,r4,#1
000020  5442              STRB     r2,[r0,r1]
;;;380    	data_to_send[_cnt++]=0x02;
000022  2202              MOVS     r2,#2
000024  4621              MOV      r1,r4
000026  1c64              ADDS     r4,r4,#1
000028  5442              STRB     r2,[r0,r1]
;;;381    	data_to_send[_cnt++]=0;
00002a  2200              MOVS     r2,#0
00002c  4621              MOV      r1,r4
00002e  1c64              ADDS     r4,r4,#1
000030  5442              STRB     r2,[r0,r1]
;;;382    	
;;;383    	_temp = a_x;
000032  9500              STR      r5,[sp,#0]
;;;384    	data_to_send[_cnt++]=BYTE1(_temp);
000034  f89d2001          LDRB     r2,[sp,#1]
000038  4621              MOV      r1,r4
00003a  1c64              ADDS     r4,r4,#1
00003c  5442              STRB     r2,[r0,r1]
;;;385    	data_to_send[_cnt++]=BYTE0(_temp);
00003e  f89d2000          LDRB     r2,[sp,#0]
000042  4621              MOV      r1,r4
000044  1c64              ADDS     r4,r4,#1
000046  5442              STRB     r2,[r0,r1]
;;;386    	_temp = a_y;
000048  9600              STR      r6,[sp,#0]
;;;387    	data_to_send[_cnt++]=BYTE1(_temp);
00004a  f89d2001          LDRB     r2,[sp,#1]
00004e  4621              MOV      r1,r4
000050  1c64              ADDS     r4,r4,#1
000052  5442              STRB     r2,[r0,r1]
;;;388    	data_to_send[_cnt++]=BYTE0(_temp);
000054  f89d2000          LDRB     r2,[sp,#0]
000058  4620              MOV      r0,r4
00005a  1c61              ADDS     r1,r4,#1
00005c  b2cc              UXTB     r4,r1
00005e  4946              LDR      r1,|L9.376|
000060  540a              STRB     r2,[r1,r0]
;;;389    	_temp = a_z;	
000062  9700              STR      r7,[sp,#0]
;;;390    	data_to_send[_cnt++]=BYTE1(_temp);
000064  f89d2001          LDRB     r2,[sp,#1]
000068  4620              MOV      r0,r4
00006a  1c61              ADDS     r1,r4,#1
00006c  b2cc              UXTB     r4,r1
00006e  4942              LDR      r1,|L9.376|
000070  540a              STRB     r2,[r1,r0]
;;;391    	data_to_send[_cnt++]=BYTE0(_temp);
000072  f89d2000          LDRB     r2,[sp,#0]
000076  4620              MOV      r0,r4
000078  1c61              ADDS     r1,r4,#1
00007a  b2cc              UXTB     r4,r1
00007c  493e              LDR      r1,|L9.376|
00007e  540a              STRB     r2,[r1,r0]
;;;392    	
;;;393    	_temp = g_x;	
000080  f8cd8000          STR      r8,[sp,#0]
;;;394    	data_to_send[_cnt++]=BYTE1(_temp);
000084  f89d2001          LDRB     r2,[sp,#1]
000088  4620              MOV      r0,r4
00008a  1c61              ADDS     r1,r4,#1
00008c  b2cc              UXTB     r4,r1
00008e  493a              LDR      r1,|L9.376|
000090  540a              STRB     r2,[r1,r0]
;;;395    	data_to_send[_cnt++]=BYTE0(_temp);
000092  f89d2000          LDRB     r2,[sp,#0]
000096  4620              MOV      r0,r4
000098  1c61              ADDS     r1,r4,#1
00009a  b2cc              UXTB     r4,r1
00009c  4936              LDR      r1,|L9.376|
00009e  540a              STRB     r2,[r1,r0]
;;;396    	_temp = g_y;	
0000a0  f8cda000          STR      r10,[sp,#0]
;;;397    	data_to_send[_cnt++]=BYTE1(_temp);
0000a4  f89d2001          LDRB     r2,[sp,#1]
0000a8  4620              MOV      r0,r4
0000aa  1c61              ADDS     r1,r4,#1
0000ac  b2cc              UXTB     r4,r1
0000ae  4932              LDR      r1,|L9.376|
0000b0  540a              STRB     r2,[r1,r0]
;;;398    	data_to_send[_cnt++]=BYTE0(_temp);
0000b2  f89d2000          LDRB     r2,[sp,#0]
0000b6  4621              MOV      r1,r4
0000b8  1c60              ADDS     r0,r4,#1
0000ba  b2c4              UXTB     r4,r0
0000bc  482e              LDR      r0,|L9.376|
0000be  5442              STRB     r2,[r0,r1]
;;;399    	_temp = g_z;	
0000c0  f8cdb000          STR      r11,[sp,#0]
;;;400    	data_to_send[_cnt++]=BYTE1(_temp);
0000c4  f89d2001          LDRB     r2,[sp,#1]
0000c8  4620              MOV      r0,r4
0000ca  1c61              ADDS     r1,r4,#1
0000cc  b2cc              UXTB     r4,r1
0000ce  492a              LDR      r1,|L9.376|
0000d0  540a              STRB     r2,[r1,r0]
;;;401    	data_to_send[_cnt++]=BYTE0(_temp);
0000d2  f89d2000          LDRB     r2,[sp,#0]
0000d6  4621              MOV      r1,r4
0000d8  1c60              ADDS     r0,r4,#1
0000da  b2c4              UXTB     r4,r0
0000dc  4826              LDR      r0,|L9.376|
0000de  5442              STRB     r2,[r0,r1]
;;;402    	
;;;403    	_temp = m_x;	
0000e0  980c              LDR      r0,[sp,#0x30]
0000e2  9000              STR      r0,[sp,#0]
;;;404    	data_to_send[_cnt++]=BYTE1(_temp);
0000e4  f89d2001          LDRB     r2,[sp,#1]
0000e8  4620              MOV      r0,r4
0000ea  1c61              ADDS     r1,r4,#1
0000ec  b2cc              UXTB     r4,r1
0000ee  4922              LDR      r1,|L9.376|
0000f0  540a              STRB     r2,[r1,r0]
;;;405    	data_to_send[_cnt++]=BYTE0(_temp);
0000f2  f89d2000          LDRB     r2,[sp,#0]
0000f6  4620              MOV      r0,r4
0000f8  1c61              ADDS     r1,r4,#1
0000fa  b2cc              UXTB     r4,r1
0000fc  491e              LDR      r1,|L9.376|
0000fe  540a              STRB     r2,[r1,r0]
;;;406    	_temp = m_y;	
000100  980d              LDR      r0,[sp,#0x34]
000102  9000              STR      r0,[sp,#0]
;;;407    	data_to_send[_cnt++]=BYTE1(_temp);
000104  f89d2001          LDRB     r2,[sp,#1]
000108  4620              MOV      r0,r4
00010a  1c61              ADDS     r1,r4,#1
00010c  b2cc              UXTB     r4,r1
00010e  491a              LDR      r1,|L9.376|
000110  540a              STRB     r2,[r1,r0]
;;;408    	data_to_send[_cnt++]=BYTE0(_temp);
000112  f89d2000          LDRB     r2,[sp,#0]
000116  4620              MOV      r0,r4
000118  1c61              ADDS     r1,r4,#1
00011a  b2cc              UXTB     r4,r1
00011c  4916              LDR      r1,|L9.376|
00011e  540a              STRB     r2,[r1,r0]
;;;409    	_temp = m_z;	
000120  980e              LDR      r0,[sp,#0x38]
000122  9000              STR      r0,[sp,#0]
;;;410    	data_to_send[_cnt++]=BYTE1(_temp);
000124  f89d2001          LDRB     r2,[sp,#1]
000128  4621              MOV      r1,r4
00012a  1c60              ADDS     r0,r4,#1
00012c  b2c4              UXTB     r4,r0
00012e  4812              LDR      r0,|L9.376|
000130  5442              STRB     r2,[r0,r1]
;;;411    	data_to_send[_cnt++]=BYTE0(_temp);
000132  f89d2000          LDRB     r2,[sp,#0]
000136  4620              MOV      r0,r4
000138  1c61              ADDS     r1,r4,#1
00013a  b2cc              UXTB     r4,r1
00013c  490e              LDR      r1,|L9.376|
00013e  540a              STRB     r2,[r1,r0]
;;;412    	
;;;413    	data_to_send[3] = _cnt-4;
000140  1f20              SUBS     r0,r4,#4
000142  70c8              STRB     r0,[r1,#3]
;;;414    	
;;;415    	u8 sum = 0;
000144  f04f0900          MOV      r9,#0
;;;416    	for(u8 i=0;i<_cnt;i++)
000148  2000              MOVS     r0,#0
00014a  e006              B        |L9.346|
                  |L9.332|
;;;417    		sum += data_to_send[i];
00014c  490a              LDR      r1,|L9.376|
00014e  5c09              LDRB     r1,[r1,r0]
000150  4449              ADD      r1,r1,r9
000152  f00109ff          AND      r9,r1,#0xff
000156  1c41              ADDS     r1,r0,#1              ;416
000158  b2c8              UXTB     r0,r1                 ;416
                  |L9.346|
00015a  42a0              CMP      r0,r4                 ;416
00015c  dbf6              BLT      |L9.332|
;;;418    	data_to_send[_cnt++] = sum;
00015e  4620              MOV      r0,r4
000160  1c61              ADDS     r1,r4,#1
000162  b2cc              UXTB     r4,r1
000164  4904              LDR      r1,|L9.376|
000166  f8019000          STRB     r9,[r1,r0]
;;;419    	
;;;420    	ANO_DT_Send_Data(data_to_send, _cnt);
00016a  4621              MOV      r1,r4
00016c  4802              LDR      r0,|L9.376|
00016e  f7fffffe          BL       ANO_DT_Send_Data
;;;421    }
000172  e8bd8ff8          POP      {r3-r11,pc}
;;;422    
                          ENDP

000176  0000              DCW      0x0000
                  |L9.376|
                          DCD      data_to_send

                          AREA ||i.ANO_DT_Send_Senser2||, CODE, READONLY, ALIGN=2

                  ANO_DT_Send_Senser2 PROC
;;;422    
;;;423    void ANO_DT_Send_Senser2(float ALT_BAR, float ALT_CSB)
000000  e92d41fc          PUSH     {r2-r8,lr}
;;;424    {
000004  4607              MOV      r7,r0
000006  460d              MOV      r5,r1
;;;425    	u8 _cnt=0;
000008  2400              MOVS     r4,#0
;;;426    	vs16 _temp;
;;;427    	vs32 _temp2;
;;;428    	data_to_send[_cnt++]=0xAA;
00000a  22aa              MOVS     r2,#0xaa
00000c  4621              MOV      r1,r4
00000e  1c64              ADDS     r4,r4,#1
000010  4829              LDR      r0,|L10.184|
000012  5442              STRB     r2,[r0,r1]
;;;429    	data_to_send[_cnt++]=0xAA;
000014  4621              MOV      r1,r4
000016  1c64              ADDS     r4,r4,#1
000018  5442              STRB     r2,[r0,r1]
;;;430    	data_to_send[_cnt++]=0x07;
00001a  2207              MOVS     r2,#7
00001c  4621              MOV      r1,r4
00001e  1c64              ADDS     r4,r4,#1
000020  5442              STRB     r2,[r0,r1]
;;;431    	data_to_send[_cnt++]=0;
000022  2200              MOVS     r2,#0
000024  4621              MOV      r1,r4
000026  1c64              ADDS     r4,r4,#1
000028  5442              STRB     r2,[r0,r1]
;;;432    	
;;;433    	_temp2 = ALT_BAR;
00002a  4638              MOV      r0,r7
00002c  f7fffffe          BL       __aeabi_f2iz
000030  9000              STR      r0,[sp,#0]
;;;434    	data_to_send[_cnt++]=BYTE3(_temp2);
000032  f89d2003          LDRB     r2,[sp,#3]
000036  4621              MOV      r1,r4
000038  1c64              ADDS     r4,r4,#1
00003a  481f              LDR      r0,|L10.184|
00003c  5442              STRB     r2,[r0,r1]
;;;435    	data_to_send[_cnt++]=BYTE2(_temp2);
00003e  f89d2002          LDRB     r2,[sp,#2]
000042  4621              MOV      r1,r4
000044  1c64              ADDS     r4,r4,#1
000046  5442              STRB     r2,[r0,r1]
;;;436    	data_to_send[_cnt++]=BYTE1(_temp2);
000048  f89d2001          LDRB     r2,[sp,#1]
00004c  4621              MOV      r1,r4
00004e  1c64              ADDS     r4,r4,#1
000050  5442              STRB     r2,[r0,r1]
;;;437    	data_to_send[_cnt++]=BYTE0(_temp2);
000052  f89d2000          LDRB     r2,[sp,#0]
000056  4620              MOV      r0,r4
000058  1c61              ADDS     r1,r4,#1
00005a  b2cc              UXTB     r4,r1
00005c  4916              LDR      r1,|L10.184|
00005e  540a              STRB     r2,[r1,r0]
;;;438    	_temp = ALT_CSB;
000060  4628              MOV      r0,r5
000062  f7fffffe          BL       __aeabi_f2iz
000066  b200              SXTH     r0,r0
000068  9001              STR      r0,[sp,#4]
;;;439    	data_to_send[_cnt++]=BYTE1(_temp);
00006a  f89d2005          LDRB     r2,[sp,#5]
00006e  4620              MOV      r0,r4
000070  1c61              ADDS     r1,r4,#1
000072  b2cc              UXTB     r4,r1
000074  4910              LDR      r1,|L10.184|
000076  540a              STRB     r2,[r1,r0]
;;;440    	data_to_send[_cnt++]=BYTE0(_temp);
000078  f89d2004          LDRB     r2,[sp,#4]
00007c  4620              MOV      r0,r4
00007e  1c61              ADDS     r1,r4,#1
000080  b2cc              UXTB     r4,r1
000082  490d              LDR      r1,|L10.184|
000084  540a              STRB     r2,[r1,r0]
;;;441    	
;;;442    	data_to_send[3] = _cnt-4;
000086  1f20              SUBS     r0,r4,#4
000088  70c8              STRB     r0,[r1,#3]
;;;443    	
;;;444    	u8 sum = 0;
00008a  2600              MOVS     r6,#0
;;;445    	for(u8 i=0;i<_cnt;i++)
00008c  2000              MOVS     r0,#0
00008e  e005              B        |L10.156|
                  |L10.144|
;;;446    		sum += data_to_send[i];
000090  4909              LDR      r1,|L10.184|
000092  5c09              LDRB     r1,[r1,r0]
000094  4431              ADD      r1,r1,r6
000096  b2ce              UXTB     r6,r1
000098  1c41              ADDS     r1,r0,#1              ;445
00009a  b2c8              UXTB     r0,r1                 ;445
                  |L10.156|
00009c  42a0              CMP      r0,r4                 ;445
00009e  dbf7              BLT      |L10.144|
;;;447    	data_to_send[_cnt++] = sum;
0000a0  4620              MOV      r0,r4
0000a2  1c61              ADDS     r1,r4,#1
0000a4  b2cc              UXTB     r4,r1
0000a6  4904              LDR      r1,|L10.184|
0000a8  540e              STRB     r6,[r1,r0]
;;;448    	
;;;449    	ANO_DT_Send_Data(data_to_send, _cnt);
0000aa  4621              MOV      r1,r4
0000ac  4802              LDR      r0,|L10.184|
0000ae  f7fffffe          BL       ANO_DT_Send_Data
;;;450    }
0000b2  e8bd81fc          POP      {r2-r8,pc}
;;;451    
                          ENDP

0000b6  0000              DCW      0x0000
                  |L10.184|
                          DCD      data_to_send

                          AREA ||i.ANO_DT_Send_Status||, CODE, READONLY, ALIGN=2

                  ANO_DT_Send_Status PROC
;;;333    }
;;;334    void ANO_DT_Send_Status(float angle_rol, float angle_pit, float angle_yaw, s32 alt, u8 fly_model, u8 armed)
000000  e92d4ffe          PUSH     {r1-r11,lr}
;;;335    {
000004  4681              MOV      r9,r0
000006  460d              MOV      r5,r1
000008  4616              MOV      r6,r2
00000a  461f              MOV      r7,r3
00000c  e9ddab0c          LDRD     r10,r11,[sp,#0x30]
;;;336    	u8 _cnt=0;
000010  2400              MOVS     r4,#0
;;;337    	vs16 _temp;
;;;338    	vs32 _temp2 = alt;
000012  9701              STR      r7,[sp,#4]
;;;339    	
;;;340    	data_to_send[_cnt++]=0xAA;
000014  22aa              MOVS     r2,#0xaa
000016  4621              MOV      r1,r4
000018  1c64              ADDS     r4,r4,#1
00001a  4848              LDR      r0,|L11.316|
00001c  5442              STRB     r2,[r0,r1]
;;;341    	data_to_send[_cnt++]=0xAA;
00001e  4621              MOV      r1,r4
000020  1c64              ADDS     r4,r4,#1
000022  5442              STRB     r2,[r0,r1]
;;;342    	data_to_send[_cnt++]=0x01;
000024  2201              MOVS     r2,#1
000026  4621              MOV      r1,r4
000028  1c64              ADDS     r4,r4,#1
00002a  5442              STRB     r2,[r0,r1]
;;;343    	data_to_send[_cnt++]=0;
00002c  2200              MOVS     r2,#0
00002e  4621              MOV      r1,r4
000030  1c64              ADDS     r4,r4,#1
000032  5442              STRB     r2,[r0,r1]
;;;344    	
;;;345    	_temp = (int)(angle_rol*100);
000034  4942              LDR      r1,|L11.320|
000036  4648              MOV      r0,r9
000038  f7fffffe          BL       __aeabi_fmul
00003c  9000              STR      r0,[sp,#0]
00003e  f7fffffe          BL       __aeabi_f2iz
000042  b200              SXTH     r0,r0
000044  9002              STR      r0,[sp,#8]
;;;346    	data_to_send[_cnt++]=BYTE1(_temp);
000046  f89d2009          LDRB     r2,[sp,#9]
00004a  4621              MOV      r1,r4
00004c  1c64              ADDS     r4,r4,#1
00004e  483b              LDR      r0,|L11.316|
000050  5442              STRB     r2,[r0,r1]
;;;347    	data_to_send[_cnt++]=BYTE0(_temp);
000052  f89d2008          LDRB     r2,[sp,#8]
000056  4621              MOV      r1,r4
000058  1c64              ADDS     r4,r4,#1
00005a  5442              STRB     r2,[r0,r1]
;;;348    	_temp = (int)(angle_pit*100);
00005c  4938              LDR      r1,|L11.320|
00005e  4628              MOV      r0,r5
000060  f7fffffe          BL       __aeabi_fmul
000064  9000              STR      r0,[sp,#0]
000066  f7fffffe          BL       __aeabi_f2iz
00006a  b200              SXTH     r0,r0
00006c  9002              STR      r0,[sp,#8]
;;;349    	data_to_send[_cnt++]=BYTE1(_temp);
00006e  f89d2009          LDRB     r2,[sp,#9]
000072  4621              MOV      r1,r4
000074  1c64              ADDS     r4,r4,#1
000076  4831              LDR      r0,|L11.316|
000078  5442              STRB     r2,[r0,r1]
;;;350    	data_to_send[_cnt++]=BYTE0(_temp);
00007a  f89d2008          LDRB     r2,[sp,#8]
00007e  4620              MOV      r0,r4
000080  1c61              ADDS     r1,r4,#1
000082  b2cc              UXTB     r4,r1
000084  492d              LDR      r1,|L11.316|
000086  540a              STRB     r2,[r1,r0]
;;;351    	_temp = (int)(angle_yaw*100);
000088  492d              LDR      r1,|L11.320|
00008a  4630              MOV      r0,r6
00008c  f7fffffe          BL       __aeabi_fmul
000090  9000              STR      r0,[sp,#0]
000092  f7fffffe          BL       __aeabi_f2iz
000096  b200              SXTH     r0,r0
000098  9002              STR      r0,[sp,#8]
;;;352    	data_to_send[_cnt++]=BYTE1(_temp);
00009a  f89d2009          LDRB     r2,[sp,#9]
00009e  4620              MOV      r0,r4
0000a0  1c61              ADDS     r1,r4,#1
0000a2  b2cc              UXTB     r4,r1
0000a4  4925              LDR      r1,|L11.316|
0000a6  540a              STRB     r2,[r1,r0]
;;;353    	data_to_send[_cnt++]=BYTE0(_temp);
0000a8  f89d2008          LDRB     r2,[sp,#8]
0000ac  4620              MOV      r0,r4
0000ae  1c61              ADDS     r1,r4,#1
0000b0  b2cc              UXTB     r4,r1
0000b2  4922              LDR      r1,|L11.316|
0000b4  540a              STRB     r2,[r1,r0]
;;;354    	
;;;355    	data_to_send[_cnt++]=BYTE3(_temp2);
0000b6  f89d2007          LDRB     r2,[sp,#7]
0000ba  4620              MOV      r0,r4
0000bc  1c61              ADDS     r1,r4,#1
0000be  b2cc              UXTB     r4,r1
0000c0  491e              LDR      r1,|L11.316|
0000c2  540a              STRB     r2,[r1,r0]
;;;356    	data_to_send[_cnt++]=BYTE2(_temp2);
0000c4  f89d2006          LDRB     r2,[sp,#6]
0000c8  4620              MOV      r0,r4
0000ca  1c61              ADDS     r1,r4,#1
0000cc  b2cc              UXTB     r4,r1
0000ce  491b              LDR      r1,|L11.316|
0000d0  540a              STRB     r2,[r1,r0]
;;;357    	data_to_send[_cnt++]=BYTE1(_temp2);
0000d2  f89d2005          LDRB     r2,[sp,#5]
0000d6  4620              MOV      r0,r4
0000d8  1c61              ADDS     r1,r4,#1
0000da  b2cc              UXTB     r4,r1
0000dc  4917              LDR      r1,|L11.316|
0000de  540a              STRB     r2,[r1,r0]
;;;358    	data_to_send[_cnt++]=BYTE0(_temp2);
0000e0  f89d2004          LDRB     r2,[sp,#4]
0000e4  4620              MOV      r0,r4
0000e6  1c61              ADDS     r1,r4,#1
0000e8  b2cc              UXTB     r4,r1
0000ea  4914              LDR      r1,|L11.316|
0000ec  540a              STRB     r2,[r1,r0]
;;;359    	
;;;360    	data_to_send[_cnt++] = fly_model;
0000ee  4620              MOV      r0,r4
0000f0  1c61              ADDS     r1,r4,#1
0000f2  b2cc              UXTB     r4,r1
0000f4  4911              LDR      r1,|L11.316|
0000f6  f801a000          STRB     r10,[r1,r0]
;;;361    	
;;;362    	data_to_send[_cnt++] = armed;
0000fa  4620              MOV      r0,r4
0000fc  1c61              ADDS     r1,r4,#1
0000fe  b2cc              UXTB     r4,r1
000100  490e              LDR      r1,|L11.316|
000102  f801b000          STRB     r11,[r1,r0]
;;;363    	
;;;364    	data_to_send[3] = _cnt-4;
000106  1f20              SUBS     r0,r4,#4
000108  70c8              STRB     r0,[r1,#3]
;;;365    	
;;;366    	u8 sum = 0;
00010a  f04f0800          MOV      r8,#0
;;;367    	for(u8 i=0;i<_cnt;i++)
00010e  2000              MOVS     r0,#0
000110  e006              B        |L11.288|
                  |L11.274|
;;;368    		sum += data_to_send[i];
000112  490a              LDR      r1,|L11.316|
000114  5c09              LDRB     r1,[r1,r0]
000116  4441              ADD      r1,r1,r8
000118  f00108ff          AND      r8,r1,#0xff
00011c  1c41              ADDS     r1,r0,#1              ;367
00011e  b2c8              UXTB     r0,r1                 ;367
                  |L11.288|
000120  42a0              CMP      r0,r4                 ;367
000122  dbf6              BLT      |L11.274|
;;;369    	data_to_send[_cnt++]=sum;
000124  4620              MOV      r0,r4
000126  1c61              ADDS     r1,r4,#1
000128  b2cc              UXTB     r4,r1
00012a  4904              LDR      r1,|L11.316|
00012c  f8018000          STRB     r8,[r1,r0]
;;;370    	
;;;371    	ANO_DT_Send_Data(data_to_send, _cnt);
000130  4621              MOV      r1,r4
000132  4802              LDR      r0,|L11.316|
000134  f7fffffe          BL       ANO_DT_Send_Data
;;;372    }
000138  e8bd8ffe          POP      {r1-r11,pc}
;;;373    void ANO_DT_Send_Senser(s16 a_x,s16 a_y,s16 a_z,s16 g_x,s16 g_y,s16 g_z,s16 m_x,s16 m_y,s16 m_z,s32 bar)
                          ENDP

                  |L11.316|
                          DCD      data_to_send
                  |L11.320|
                          DCD      0x42c80000

                          AREA ||i.ANO_DT_Send_Version||, CODE, READONLY, ALIGN=2

                  ANO_DT_Send_Version PROC
;;;306    
;;;307    void ANO_DT_Send_Version(u8 hardware_type, u16 hardware_ver,u16 software_ver,u16 protocol_ver,u16 bootloader_ver)
000000  b57f              PUSH     {r0-r6,lr}
;;;308    {
000002  4605              MOV      r5,r0
;;;309    	u8 _cnt=0;
000004  2400              MOVS     r4,#0
;;;310    	data_to_send[_cnt++]=0xAA;
000006  22aa              MOVS     r2,#0xaa
000008  4621              MOV      r1,r4
00000a  1c64              ADDS     r4,r4,#1
00000c  482c              LDR      r0,|L12.192|
00000e  5442              STRB     r2,[r0,r1]
;;;311    	data_to_send[_cnt++]=0xAA;
000010  4621              MOV      r1,r4
000012  1c64              ADDS     r4,r4,#1
000014  5442              STRB     r2,[r0,r1]
;;;312    	data_to_send[_cnt++]=0x00;
000016  2200              MOVS     r2,#0
000018  4621              MOV      r1,r4
00001a  1c64              ADDS     r4,r4,#1
00001c  5442              STRB     r2,[r0,r1]
;;;313    	data_to_send[_cnt++]=0;
00001e  4621              MOV      r1,r4
000020  1c64              ADDS     r4,r4,#1
000022  5442              STRB     r2,[r0,r1]
;;;314    	
;;;315    	data_to_send[_cnt++]=hardware_type;
000024  4621              MOV      r1,r4
000026  1c64              ADDS     r4,r4,#1
000028  5445              STRB     r5,[r0,r1]
;;;316    	data_to_send[_cnt++]=BYTE1(hardware_ver);
00002a  f89d2005          LDRB     r2,[sp,#5]
00002e  4621              MOV      r1,r4
000030  1c64              ADDS     r4,r4,#1
000032  5442              STRB     r2,[r0,r1]
;;;317    	data_to_send[_cnt++]=BYTE0(hardware_ver);
000034  f89d2004          LDRB     r2,[sp,#4]
000038  4621              MOV      r1,r4
00003a  1c64              ADDS     r4,r4,#1
00003c  5442              STRB     r2,[r0,r1]
;;;318    	data_to_send[_cnt++]=BYTE1(software_ver);
00003e  f89d2009          LDRB     r2,[sp,#9]
000042  4620              MOV      r0,r4
000044  1c61              ADDS     r1,r4,#1
000046  b2cc              UXTB     r4,r1
000048  491d              LDR      r1,|L12.192|
00004a  540a              STRB     r2,[r1,r0]
;;;319    	data_to_send[_cnt++]=BYTE0(software_ver);
00004c  f89d2008          LDRB     r2,[sp,#8]
000050  4620              MOV      r0,r4
000052  1c61              ADDS     r1,r4,#1
000054  b2cc              UXTB     r4,r1
000056  491a              LDR      r1,|L12.192|
000058  540a              STRB     r2,[r1,r0]
;;;320    	data_to_send[_cnt++]=BYTE1(protocol_ver);
00005a  f89d200d          LDRB     r2,[sp,#0xd]
00005e  4620              MOV      r0,r4
000060  1c61              ADDS     r1,r4,#1
000062  b2cc              UXTB     r4,r1
000064  4916              LDR      r1,|L12.192|
000066  540a              STRB     r2,[r1,r0]
;;;321    	data_to_send[_cnt++]=BYTE0(protocol_ver);
000068  f89d200c          LDRB     r2,[sp,#0xc]
00006c  4620              MOV      r0,r4
00006e  1c61              ADDS     r1,r4,#1
000070  b2cc              UXTB     r4,r1
000072  4913              LDR      r1,|L12.192|
000074  540a              STRB     r2,[r1,r0]
;;;322    	data_to_send[_cnt++]=BYTE1(bootloader_ver);
000076  f89d2021          LDRB     r2,[sp,#0x21]
00007a  4620              MOV      r0,r4
00007c  1c61              ADDS     r1,r4,#1
00007e  b2cc              UXTB     r4,r1
000080  490f              LDR      r1,|L12.192|
000082  540a              STRB     r2,[r1,r0]
;;;323    	data_to_send[_cnt++]=BYTE0(bootloader_ver);
000084  f89d2020          LDRB     r2,[sp,#0x20]
000088  4620              MOV      r0,r4
00008a  1c61              ADDS     r1,r4,#1
00008c  b2cc              UXTB     r4,r1
00008e  490c              LDR      r1,|L12.192|
000090  540a              STRB     r2,[r1,r0]
;;;324    	
;;;325    	data_to_send[3] = _cnt-4;
000092  1f20              SUBS     r0,r4,#4
000094  70c8              STRB     r0,[r1,#3]
;;;326    	
;;;327    	u8 sum = 0;
000096  2600              MOVS     r6,#0
;;;328    	for(u8 i=0;i<_cnt;i++)
000098  2000              MOVS     r0,#0
00009a  e005              B        |L12.168|
                  |L12.156|
;;;329    		sum += data_to_send[i];
00009c  4908              LDR      r1,|L12.192|
00009e  5c09              LDRB     r1,[r1,r0]
0000a0  4431              ADD      r1,r1,r6
0000a2  b2ce              UXTB     r6,r1
0000a4  1c41              ADDS     r1,r0,#1              ;328
0000a6  b2c8              UXTB     r0,r1                 ;328
                  |L12.168|
0000a8  42a0              CMP      r0,r4                 ;328
0000aa  dbf7              BLT      |L12.156|
;;;330    	data_to_send[_cnt++]=sum;
0000ac  4620              MOV      r0,r4
0000ae  1c61              ADDS     r1,r4,#1
0000b0  b2cc              UXTB     r4,r1
0000b2  4903              LDR      r1,|L12.192|
0000b4  540e              STRB     r6,[r1,r0]
;;;331    	
;;;332    	ANO_DT_Send_Data(data_to_send, _cnt);
0000b6  4621              MOV      r1,r4
0000b8  4801              LDR      r0,|L12.192|
0000ba  f7fffffe          BL       ANO_DT_Send_Data
;;;333    }
0000be  bd7f              POP      {r0-r6,pc}
;;;334    void ANO_DT_Send_Status(float angle_rol, float angle_pit, float angle_yaw, s32 alt, u8 fly_model, u8 armed)
                          ENDP

                  |L12.192|
                          DCD      data_to_send

                          AREA ||i.ANO_DT_Send_userdata||, CODE, READONLY, ALIGN=2

                  ANO_DT_Send_userdata PROC
;;;605    
;;;606    void ANO_DT_Send_userdata(u8 group,float data1,float data2,float data3,float data4,float data5,float data6,float data7,float data8,float data9,float data10,float data11,float data12)
000000  e92d4ff8          PUSH     {r3-r11,lr}
;;;607    {
000004  4606              MOV      r6,r0
000006  460f              MOV      r7,r1
000008  4690              MOV      r8,r2
00000a  4699              MOV      r9,r3
00000c  e9ddab0a          LDRD     r10,r11,[sp,#0x28]
;;;608    	u8 _cnt=0;
000010  2400              MOVS     r4,#0
;;;609    	vs16 _temp;
;;;610    	vs32 _temp1;//注意32位于16位的区别,这里强行将float转换为int32
;;;611    	data_to_send[_cnt++]=0xAA;
000012  22aa              MOVS     r2,#0xaa
000014  4621              MOV      r1,r4
000016  1c64              ADDS     r4,r4,#1
000018  48d1              LDR      r0,|L13.864|
00001a  5442              STRB     r2,[r0,r1]
;;;612    	data_to_send[_cnt++]=0xAA;
00001c  4621              MOV      r1,r4
00001e  1c64              ADDS     r4,r4,#1
000020  5442              STRB     r2,[r0,r1]
;;;613    	data_to_send[_cnt++]=0xF0+group;
000022  f10600f0          ADD      r0,r6,#0xf0
000026  b2c2              UXTB     r2,r0
000028  4621              MOV      r1,r4
00002a  1c64              ADDS     r4,r4,#1
00002c  48cc              LDR      r0,|L13.864|
00002e  5442              STRB     r2,[r0,r1]
;;;614    	data_to_send[_cnt++]=0;
000030  2200              MOVS     r2,#0
000032  4621              MOV      r1,r4
000034  1c64              ADDS     r4,r4,#1
000036  5442              STRB     r2,[r0,r1]
;;;615    	
;;;616    	
;;;617    	_temp1 = data1;
000038  4638              MOV      r0,r7
00003a  f7fffffe          BL       __aeabi_f2iz
00003e  9000              STR      r0,[sp,#0]
;;;618    	data_to_send[_cnt++]=BYTE3(_temp1);
000040  f89d2003          LDRB     r2,[sp,#3]
000044  4621              MOV      r1,r4
000046  1c64              ADDS     r4,r4,#1
000048  48c5              LDR      r0,|L13.864|
00004a  5442              STRB     r2,[r0,r1]
;;;619    	data_to_send[_cnt++]=BYTE2(_temp1);	
00004c  f89d2002          LDRB     r2,[sp,#2]
000050  4621              MOV      r1,r4
000052  1c64              ADDS     r4,r4,#1
000054  5442              STRB     r2,[r0,r1]
;;;620    	data_to_send[_cnt++]=BYTE1(_temp1);
000056  f89d2001          LDRB     r2,[sp,#1]
00005a  4621              MOV      r1,r4
00005c  1c64              ADDS     r4,r4,#1
00005e  5442              STRB     r2,[r0,r1]
;;;621    	data_to_send[_cnt++]=BYTE0(_temp1);
000060  f89d2000          LDRB     r2,[sp,#0]
000064  4620              MOV      r0,r4
000066  1c61              ADDS     r1,r4,#1
000068  b2cc              UXTB     r4,r1
00006a  49bd              LDR      r1,|L13.864|
00006c  540a              STRB     r2,[r1,r0]
;;;622    	_temp1 = data2;
00006e  4640              MOV      r0,r8
000070  f7fffffe          BL       __aeabi_f2iz
000074  9000              STR      r0,[sp,#0]
;;;623    	data_to_send[_cnt++]=BYTE3(_temp1);
000076  f89d2003          LDRB     r2,[sp,#3]
00007a  4620              MOV      r0,r4
00007c  1c61              ADDS     r1,r4,#1
00007e  b2cc              UXTB     r4,r1
000080  49b7              LDR      r1,|L13.864|
000082  540a              STRB     r2,[r1,r0]
;;;624    	data_to_send[_cnt++]=BYTE2(_temp1);	
000084  f89d2002          LDRB     r2,[sp,#2]
000088  4620              MOV      r0,r4
00008a  1c61              ADDS     r1,r4,#1
00008c  b2cc              UXTB     r4,r1
00008e  49b4              LDR      r1,|L13.864|
000090  540a              STRB     r2,[r1,r0]
;;;625    	data_to_send[_cnt++]=BYTE1(_temp1);
000092  f89d2001          LDRB     r2,[sp,#1]
000096  4620              MOV      r0,r4
000098  1c61              ADDS     r1,r4,#1
00009a  b2cc              UXTB     r4,r1
00009c  49b0              LDR      r1,|L13.864|
00009e  540a              STRB     r2,[r1,r0]
;;;626    	data_to_send[_cnt++]=BYTE0(_temp1);
0000a0  f89d2000          LDRB     r2,[sp,#0]
0000a4  4620              MOV      r0,r4
0000a6  1c61              ADDS     r1,r4,#1
0000a8  b2cc              UXTB     r4,r1
0000aa  49ad              LDR      r1,|L13.864|
0000ac  540a              STRB     r2,[r1,r0]
;;;627    		_temp1 = data3;
0000ae  4648              MOV      r0,r9
0000b0  f7fffffe          BL       __aeabi_f2iz
0000b4  9000              STR      r0,[sp,#0]
;;;628    	data_to_send[_cnt++]=BYTE3(_temp1);
0000b6  f89d2003          LDRB     r2,[sp,#3]
0000ba  4620              MOV      r0,r4
0000bc  1c61              ADDS     r1,r4,#1
0000be  b2cc              UXTB     r4,r1
0000c0  49a7              LDR      r1,|L13.864|
0000c2  540a              STRB     r2,[r1,r0]
;;;629    	data_to_send[_cnt++]=BYTE2(_temp1);	
0000c4  f89d2002          LDRB     r2,[sp,#2]
0000c8  4620              MOV      r0,r4
0000ca  1c61              ADDS     r1,r4,#1
0000cc  b2cc              UXTB     r4,r1
0000ce  49a4              LDR      r1,|L13.864|
0000d0  540a              STRB     r2,[r1,r0]
;;;630    	data_to_send[_cnt++]=BYTE1(_temp1);
0000d2  f89d2001          LDRB     r2,[sp,#1]
0000d6  4620              MOV      r0,r4
0000d8  1c61              ADDS     r1,r4,#1
0000da  b2cc              UXTB     r4,r1
0000dc  49a0              LDR      r1,|L13.864|
0000de  540a              STRB     r2,[r1,r0]
;;;631    	data_to_send[_cnt++]=BYTE0(_temp1);
0000e0  f89d2000          LDRB     r2,[sp,#0]
0000e4  4620              MOV      r0,r4
0000e6  1c61              ADDS     r1,r4,#1
0000e8  b2cc              UXTB     r4,r1
0000ea  499d              LDR      r1,|L13.864|
0000ec  540a              STRB     r2,[r1,r0]
;;;632    		_temp1 = data4;
0000ee  4650              MOV      r0,r10
0000f0  f7fffffe          BL       __aeabi_f2iz
0000f4  9000              STR      r0,[sp,#0]
;;;633    	data_to_send[_cnt++]=BYTE3(_temp1);
0000f6  f89d2003          LDRB     r2,[sp,#3]
0000fa  4620              MOV      r0,r4
0000fc  1c61              ADDS     r1,r4,#1
0000fe  b2cc              UXTB     r4,r1
000100  4997              LDR      r1,|L13.864|
000102  540a              STRB     r2,[r1,r0]
;;;634    	data_to_send[_cnt++]=BYTE2(_temp1);	
000104  f89d2002          LDRB     r2,[sp,#2]
000108  4620              MOV      r0,r4
00010a  1c61              ADDS     r1,r4,#1
00010c  b2cc              UXTB     r4,r1
00010e  4994              LDR      r1,|L13.864|
000110  540a              STRB     r2,[r1,r0]
;;;635    	data_to_send[_cnt++]=BYTE1(_temp1);
000112  f89d2001          LDRB     r2,[sp,#1]
000116  4620              MOV      r0,r4
000118  1c61              ADDS     r1,r4,#1
00011a  b2cc              UXTB     r4,r1
00011c  4990              LDR      r1,|L13.864|
00011e  540a              STRB     r2,[r1,r0]
;;;636    	data_to_send[_cnt++]=BYTE0(_temp1);
000120  f89d2000          LDRB     r2,[sp,#0]
000124  4620              MOV      r0,r4
000126  1c61              ADDS     r1,r4,#1
000128  b2cc              UXTB     r4,r1
00012a  498d              LDR      r1,|L13.864|
00012c  540a              STRB     r2,[r1,r0]
;;;637    		_temp1 = data5;
00012e  4658              MOV      r0,r11
000130  f7fffffe          BL       __aeabi_f2iz
000134  9000              STR      r0,[sp,#0]
;;;638    	data_to_send[_cnt++]=BYTE3(_temp1);
000136  f89d2003          LDRB     r2,[sp,#3]
00013a  4620              MOV      r0,r4
00013c  1c61              ADDS     r1,r4,#1
00013e  b2cc              UXTB     r4,r1
000140  4987              LDR      r1,|L13.864|
000142  540a              STRB     r2,[r1,r0]
;;;639    	data_to_send[_cnt++]=BYTE2(_temp1);	
000144  f89d2002          LDRB     r2,[sp,#2]
000148  4620              MOV      r0,r4
00014a  1c61              ADDS     r1,r4,#1
00014c  b2cc              UXTB     r4,r1
00014e  4984              LDR      r1,|L13.864|
000150  540a              STRB     r2,[r1,r0]
;;;640    	data_to_send[_cnt++]=BYTE1(_temp1);
000152  f89d2001          LDRB     r2,[sp,#1]
000156  4620              MOV      r0,r4
000158  1c61              ADDS     r1,r4,#1
00015a  b2cc              UXTB     r4,r1
00015c  4980              LDR      r1,|L13.864|
00015e  540a              STRB     r2,[r1,r0]
;;;641    	data_to_send[_cnt++]=BYTE0(_temp1);
000160  f89d2000          LDRB     r2,[sp,#0]
000164  4620              MOV      r0,r4
000166  1c61              ADDS     r1,r4,#1
000168  b2cc              UXTB     r4,r1
00016a  497d              LDR      r1,|L13.864|
00016c  540a              STRB     r2,[r1,r0]
;;;642    		_temp1 = data6;
00016e  980c              LDR      r0,[sp,#0x30]
000170  f7fffffe          BL       __aeabi_f2iz
000174  9000              STR      r0,[sp,#0]
;;;643    	data_to_send[_cnt++]=BYTE3(_temp1);
000176  f89d2003          LDRB     r2,[sp,#3]
00017a  4620              MOV      r0,r4
00017c  1c61              ADDS     r1,r4,#1
00017e  b2cc              UXTB     r4,r1
000180  4977              LDR      r1,|L13.864|
000182  540a              STRB     r2,[r1,r0]
;;;644    	data_to_send[_cnt++]=BYTE2(_temp1);	
000184  f89d2002          LDRB     r2,[sp,#2]
000188  4620              MOV      r0,r4
00018a  1c61              ADDS     r1,r4,#1
00018c  b2cc              UXTB     r4,r1
00018e  4974              LDR      r1,|L13.864|
000190  540a              STRB     r2,[r1,r0]
;;;645    	data_to_send[_cnt++]=BYTE1(_temp1);
000192  f89d2001          LDRB     r2,[sp,#1]
000196  4620              MOV      r0,r4
000198  1c61              ADDS     r1,r4,#1
00019a  b2cc              UXTB     r4,r1
00019c  4970              LDR      r1,|L13.864|
00019e  540a              STRB     r2,[r1,r0]
;;;646    	data_to_send[_cnt++]=BYTE0(_temp1);
0001a0  f89d2000          LDRB     r2,[sp,#0]
0001a4  4621              MOV      r1,r4
0001a6  1c60              ADDS     r0,r4,#1
0001a8  b2c4              UXTB     r4,r0
0001aa  486d              LDR      r0,|L13.864|
0001ac  5442              STRB     r2,[r0,r1]
;;;647    		_temp1 = data7;
0001ae  980d              LDR      r0,[sp,#0x34]
0001b0  f7fffffe          BL       __aeabi_f2iz
0001b4  9000              STR      r0,[sp,#0]
;;;648    	data_to_send[_cnt++]=BYTE3(_temp1);
0001b6  f89d2003          LDRB     r2,[sp,#3]
0001ba  4620              MOV      r0,r4
0001bc  1c61              ADDS     r1,r4,#1
0001be  b2cc              UXTB     r4,r1
0001c0  4967              LDR      r1,|L13.864|
0001c2  540a              STRB     r2,[r1,r0]
;;;649    	data_to_send[_cnt++]=BYTE2(_temp1);	
0001c4  f89d2002          LDRB     r2,[sp,#2]
0001c8  4620              MOV      r0,r4
0001ca  1c61              ADDS     r1,r4,#1
0001cc  b2cc              UXTB     r4,r1
0001ce  4964              LDR      r1,|L13.864|
0001d0  540a              STRB     r2,[r1,r0]
;;;650    	data_to_send[_cnt++]=BYTE1(_temp1);
0001d2  f89d2001          LDRB     r2,[sp,#1]
0001d6  4620              MOV      r0,r4
0001d8  1c61              ADDS     r1,r4,#1
0001da  b2cc              UXTB     r4,r1
0001dc  4960              LDR      r1,|L13.864|
0001de  540a              STRB     r2,[r1,r0]
;;;651    	data_to_send[_cnt++]=BYTE0(_temp1);
0001e0  f89d2000          LDRB     r2,[sp,#0]
0001e4  4620              MOV      r0,r4
0001e6  1c61              ADDS     r1,r4,#1
0001e8  b2cc              UXTB     r4,r1
0001ea  495d              LDR      r1,|L13.864|
0001ec  540a              STRB     r2,[r1,r0]
;;;652    		_temp1 = data8;
0001ee  980e              LDR      r0,[sp,#0x38]
0001f0  f7fffffe          BL       __aeabi_f2iz
0001f4  9000              STR      r0,[sp,#0]
;;;653    	data_to_send[_cnt++]=BYTE3(_temp1);
0001f6  f89d2003          LDRB     r2,[sp,#3]
0001fa  4620              MOV      r0,r4
0001fc  1c61              ADDS     r1,r4,#1
0001fe  b2cc              UXTB     r4,r1
000200  4957              LDR      r1,|L13.864|
000202  540a              STRB     r2,[r1,r0]
;;;654    	data_to_send[_cnt++]=BYTE2(_temp1);	
000204  f89d2002          LDRB     r2,[sp,#2]
000208  4620              MOV      r0,r4
00020a  1c61              ADDS     r1,r4,#1
00020c  b2cc              UXTB     r4,r1
00020e  4954              LDR      r1,|L13.864|
000210  540a              STRB     r2,[r1,r0]
;;;655    	data_to_send[_cnt++]=BYTE1(_temp1);
000212  f89d2001          LDRB     r2,[sp,#1]
000216  4620              MOV      r0,r4
000218  1c61              ADDS     r1,r4,#1
00021a  b2cc              UXTB     r4,r1
00021c  4950              LDR      r1,|L13.864|
00021e  540a              STRB     r2,[r1,r0]
;;;656    	data_to_send[_cnt++]=BYTE0(_temp1);
000220  f89d2000          LDRB     r2,[sp,#0]
000224  4620              MOV      r0,r4
000226  1c61              ADDS     r1,r4,#1
000228  b2cc              UXTB     r4,r1
00022a  494d              LDR      r1,|L13.864|
00022c  540a              STRB     r2,[r1,r0]
;;;657    		_temp1 = data9;
00022e  980f              LDR      r0,[sp,#0x3c]
000230  f7fffffe          BL       __aeabi_f2iz
000234  9000              STR      r0,[sp,#0]
;;;658    	data_to_send[_cnt++]=BYTE3(_temp1);
000236  f89d2003          LDRB     r2,[sp,#3]
00023a  4620              MOV      r0,r4
00023c  1c61              ADDS     r1,r4,#1
00023e  b2cc              UXTB     r4,r1
000240  4947              LDR      r1,|L13.864|
000242  540a              STRB     r2,[r1,r0]
;;;659    	data_to_send[_cnt++]=BYTE2(_temp1);	
000244  f89d2002          LDRB     r2,[sp,#2]
000248  4620              MOV      r0,r4
00024a  1c61              ADDS     r1,r4,#1
00024c  b2cc              UXTB     r4,r1
00024e  4944              LDR      r1,|L13.864|
000250  540a              STRB     r2,[r1,r0]
;;;660    	data_to_send[_cnt++]=BYTE1(_temp1);
000252  f89d2001          LDRB     r2,[sp,#1]
000256  4620              MOV      r0,r4
000258  1c61              ADDS     r1,r4,#1
00025a  b2cc              UXTB     r4,r1
00025c  4940              LDR      r1,|L13.864|
00025e  540a              STRB     r2,[r1,r0]
;;;661    	data_to_send[_cnt++]=BYTE0(_temp1);
000260  f89d2000          LDRB     r2,[sp,#0]
000264  4620              MOV      r0,r4
000266  1c61              ADDS     r1,r4,#1
000268  b2cc              UXTB     r4,r1
00026a  493d              LDR      r1,|L13.864|
00026c  540a              STRB     r2,[r1,r0]
;;;662    		_temp1 = data10;
00026e  9810              LDR      r0,[sp,#0x40]
000270  f7fffffe          BL       __aeabi_f2iz
000274  9000              STR      r0,[sp,#0]
;;;663    	data_to_send[_cnt++]=BYTE3(_temp1);
000276  f89d2003          LDRB     r2,[sp,#3]
00027a  4620              MOV      r0,r4
00027c  1c61              ADDS     r1,r4,#1
00027e  b2cc              UXTB     r4,r1
000280  4937              LDR      r1,|L13.864|
000282  540a              STRB     r2,[r1,r0]
;;;664    	data_to_send[_cnt++]=BYTE2(_temp1);	
000284  f89d2002          LDRB     r2,[sp,#2]
000288  4620              MOV      r0,r4
00028a  1c61              ADDS     r1,r4,#1
00028c  b2cc              UXTB     r4,r1
00028e  4934              LDR      r1,|L13.864|
000290  540a              STRB     r2,[r1,r0]
;;;665    	data_to_send[_cnt++]=BYTE1(_temp1);
000292  f89d2001          LDRB     r2,[sp,#1]
000296  4620              MOV      r0,r4
000298  1c61              ADDS     r1,r4,#1
00029a  b2cc              UXTB     r4,r1
00029c  4930              LDR      r1,|L13.864|
00029e  540a              STRB     r2,[r1,r0]
;;;666    	data_to_send[_cnt++]=BYTE0(_temp1);
0002a0  f89d2000          LDRB     r2,[sp,#0]
0002a4  4620              MOV      r0,r4
0002a6  1c61              ADDS     r1,r4,#1
0002a8  b2cc              UXTB     r4,r1
0002aa  492d              LDR      r1,|L13.864|
0002ac  540a              STRB     r2,[r1,r0]
;;;667    		_temp1 = data11;
0002ae  9811              LDR      r0,[sp,#0x44]
0002b0  f7fffffe          BL       __aeabi_f2iz
0002b4  9000              STR      r0,[sp,#0]
;;;668    	data_to_send[_cnt++]=BYTE3(_temp1);
0002b6  f89d2003          LDRB     r2,[sp,#3]
0002ba  4620              MOV      r0,r4
0002bc  1c61              ADDS     r1,r4,#1
0002be  b2cc              UXTB     r4,r1
0002c0  4927              LDR      r1,|L13.864|
0002c2  540a              STRB     r2,[r1,r0]
;;;669    	data_to_send[_cnt++]=BYTE2(_temp1);	
0002c4  f89d2002          LDRB     r2,[sp,#2]
0002c8  4620              MOV      r0,r4
0002ca  1c61              ADDS     r1,r4,#1
0002cc  b2cc              UXTB     r4,r1
0002ce  4924              LDR      r1,|L13.864|
0002d0  540a              STRB     r2,[r1,r0]
;;;670    	data_to_send[_cnt++]=BYTE1(_temp1);
0002d2  f89d2001          LDRB     r2,[sp,#1]
0002d6  4620              MOV      r0,r4
0002d8  1c61              ADDS     r1,r4,#1
0002da  b2cc              UXTB     r4,r1
0002dc  4920              LDR      r1,|L13.864|
0002de  540a              STRB     r2,[r1,r0]
;;;671    	data_to_send[_cnt++]=BYTE0(_temp1);
0002e0  f89d2000          LDRB     r2,[sp,#0]
0002e4  4620              MOV      r0,r4
0002e6  1c61              ADDS     r1,r4,#1
0002e8  b2cc              UXTB     r4,r1
0002ea  491d              LDR      r1,|L13.864|
0002ec  540a              STRB     r2,[r1,r0]
;;;672    		_temp1 = data12;
0002ee  9812              LDR      r0,[sp,#0x48]
0002f0  f7fffffe          BL       __aeabi_f2iz
0002f4  9000              STR      r0,[sp,#0]
;;;673    	data_to_send[_cnt++]=BYTE3(_temp1);
0002f6  f89d2003          LDRB     r2,[sp,#3]
0002fa  4620              MOV      r0,r4
0002fc  1c61              ADDS     r1,r4,#1
0002fe  b2cc              UXTB     r4,r1
000300  4917              LDR      r1,|L13.864|
000302  540a              STRB     r2,[r1,r0]
;;;674    	data_to_send[_cnt++]=BYTE2(_temp1);	
000304  f89d2002          LDRB     r2,[sp,#2]
000308  4620              MOV      r0,r4
00030a  1c61              ADDS     r1,r4,#1
00030c  b2cc              UXTB     r4,r1
00030e  4914              LDR      r1,|L13.864|
000310  540a              STRB     r2,[r1,r0]
;;;675    	data_to_send[_cnt++]=BYTE1(_temp1);
000312  f89d2001          LDRB     r2,[sp,#1]
000316  4620              MOV      r0,r4
000318  1c61              ADDS     r1,r4,#1
00031a  b2cc              UXTB     r4,r1
00031c  4910              LDR      r1,|L13.864|
00031e  540a              STRB     r2,[r1,r0]
;;;676    	data_to_send[_cnt++]=BYTE0(_temp1);
000320  f89d2000          LDRB     r2,[sp,#0]
000324  4620              MOV      r0,r4
000326  1c61              ADDS     r1,r4,#1
000328  b2cc              UXTB     r4,r1
00032a  490d              LDR      r1,|L13.864|
00032c  540a              STRB     r2,[r1,r0]
;;;677    
;;;678    
;;;679    	data_to_send[3] = _cnt-4;
00032e  1f20              SUBS     r0,r4,#4
000330  70c8              STRB     r0,[r1,#3]
;;;680    	
;;;681    	u8 sum = 0;
000332  2500              MOVS     r5,#0
;;;682    	for(u8 i=0;i<_cnt;i++)
000334  2000              MOVS     r0,#0
000336  e005              B        |L13.836|
                  |L13.824|
;;;683    		sum += data_to_send[i];
000338  4909              LDR      r1,|L13.864|
00033a  5c09              LDRB     r1,[r1,r0]
00033c  4429              ADD      r1,r1,r5
00033e  b2cd              UXTB     r5,r1
000340  1c41              ADDS     r1,r0,#1              ;682
000342  b2c8              UXTB     r0,r1                 ;682
                  |L13.836|
000344  42a0              CMP      r0,r4                 ;682
000346  dbf7              BLT      |L13.824|
;;;684    	
;;;685    	data_to_send[_cnt++]=sum;
000348  4620              MOV      r0,r4
00034a  1c61              ADDS     r1,r4,#1
00034c  b2cc              UXTB     r4,r1
00034e  4904              LDR      r1,|L13.864|
000350  540d              STRB     r5,[r1,r0]
;;;686    
;;;687    	ANO_DT_Send_Data(data_to_send, _cnt);
000352  4621              MOV      r1,r4
000354  4802              LDR      r0,|L13.864|
000356  f7fffffe          BL       ANO_DT_Send_Data
;;;688    }
00035a  e8bd8ff8          POP      {r3-r11,pc}
;;;689    /******************* (C) COPYRIGHT 2014 ANO TECH *****END OF FILE************/
                          ENDP

00035e  0000              DCW      0x0000
                  |L13.864|
                          DCD      data_to_send

                          AREA ||.bss||, DATA, NOINIT, ALIGN=2

                  f
                          %        16
                  data_to_send
                          %        96
                  userdata1
                          %        52
                  userdata2
                          %        52

                          AREA ||.data||, DATA, ALIGN=2

                  realtime
                          DCD      0x00000000
                  realdata
                          DCD      0x00000000
                  ||cnt||
000008  00                DCB      0x00
                  userdata_cnt
000009  02                DCB      0x02
                  senser_cnt1
00000a  0d                DCB      0x0d
                  senser_cnt2
00000b  0f                DCB      0x0f
                  status_cnt
00000c  09                DCB      0x09
                  rcdata_cnt
00000d  17                DCB      0x17
                  motopwm_cnt
00000e  1b                DCB      0x1b
                  power_cnt
00000f  c7                DCB      0xc7
                  numi
000010  00                DCB      0x00
                  numj
000011  00                DCB      0x00
